; ModuleID = 'svm.cpp'
source_filename = "svm.cpp"
target datalayout = "e-m:e-p270:32:32-p271:32:32-p272:64:64-i64:64-f80:128-n8:16:32:64-S128"
target triple = "x86_64-unknown-linux-gnu"

%struct._IO_FILE = type { i32, i8*, i8*, i8*, i8*, i8*, i8*, i8*, i8*, i8*, i8*, i8*, %struct._IO_marker*, %struct._IO_FILE*, i32, i32, i64, i16, i8, [1 x i8], i8*, i64, i8*, i8*, i8*, i8*, i64, i32, [20 x i8] }
%struct._IO_marker = type { %struct._IO_marker*, %struct._IO_FILE*, i32 }
%class.Cache = type { i32, i64, %"struct.Cache::head_t"*, %"struct.Cache::head_t" }
%"struct.Cache::head_t" = type { %"struct.Cache::head_t"*, %"struct.Cache::head_t"*, float*, i32 }
%class.Kernel = type { %class.QMatrix, { i64, i64 }, %struct.svm_node**, double*, i32, i32, double, double }
%class.QMatrix = type { i32 (...)** }
%struct.svm_node = type { i32, double }
%struct.svm_parameter = type { i32, i32, i32, double, double, double, double, double, i32, i32*, double*, double, double, i32, i32 }
%class.Solver = type <{ i32 (...)**, i32, [4 x i8], i8*, double*, i8*, double*, %class.QMatrix*, double*, double, double, double, double*, i32*, double*, i32, i8, [3 x i8] }>
%struct.__va_list_tag = type { i32, i32, i8*, i8* }
%"struct.Solver::SolutionInfo" = type { double, double, double, double, double }
%class.Solver_NU = type { %class.Solver.base, %"struct.Solver::SolutionInfo"* }
%class.Solver.base = type <{ i32 (...)**, i32, [4 x i8], i8*, double*, i8*, double*, %class.QMatrix*, double*, double, double, double, double*, i32*, double*, i32, i8 }>
%struct.svm_model = type { %struct.svm_parameter, i32, i32, %struct.svm_node**, double**, double*, double*, double*, i32*, i32*, i32*, i32 }
%struct.svm_problem = type { i32, double*, %struct.svm_node** }
%struct.decision_function = type { double*, double }
%class.SVC_Q = type { %class.Kernel, i8*, %class.Cache*, double* }
%class.ONE_CLASS_Q = type { %class.Kernel, %class.Cache*, double* }
%class.SVR_Q = type { %class.Kernel, i32, %class.Cache*, i8*, i32*, i32, [2 x float*], double* }

$_ZN7QMatrixC2Ev = comdat any

$_ZNK6Kernel13kernel_linearEii = comdat any

$_ZNK6Kernel11kernel_polyEii = comdat any

$_ZNK6Kernel10kernel_rbfEii = comdat any

$_ZNK6Kernel14kernel_sigmoidEii = comdat any

$_ZNK6Kernel18kernel_precomputedEii = comdat any

$_ZN6Solver7is_freeEi = comdat any

$_ZN6Solver19update_alpha_statusEi = comdat any

$_ZN6Solver14is_lower_boundEi = comdat any

$_ZN6Solver14is_upper_boundEi = comdat any

$_ZN6Solver5get_CEi = comdat any

$_ZNK6Kernel10swap_indexEii = comdat any

$_ZN6SolverD2Ev = comdat any

$_ZN6SolverD0Ev = comdat any

$_ZN9Solver_NUD2Ev = comdat any

$_ZN9Solver_NUD0Ev = comdat any

$_ZN7QMatrixD2Ev = comdat any

$_ZN7QMatrixD0Ev = comdat any

$_ZN6SolverC2Ev = comdat any

$_ZN5SVC_QC2ERK11svm_problemRK13svm_parameterPKa = comdat any

$_ZN5SVC_QD2Ev = comdat any

$_ZNK5SVC_Q5get_QEii = comdat any

$_ZNK5SVC_Q6get_QDEv = comdat any

$_ZNK5SVC_Q10swap_indexEii = comdat any

$_ZN5SVC_QD0Ev = comdat any

$_ZN9Solver_NUC2Ev = comdat any

$_ZN9Solver_NU5SolveEiRK7QMatrixPKdPKaPddddPN6Solver12SolutionInfoEi = comdat any

$_ZN11ONE_CLASS_QC2ERK11svm_problemRK13svm_parameter = comdat any

$_ZN11ONE_CLASS_QD2Ev = comdat any

$_ZNK11ONE_CLASS_Q5get_QEii = comdat any

$_ZNK11ONE_CLASS_Q6get_QDEv = comdat any

$_ZNK11ONE_CLASS_Q10swap_indexEii = comdat any

$_ZN11ONE_CLASS_QD0Ev = comdat any

$_ZN5SVR_QC2ERK11svm_problemRK13svm_parameter = comdat any

$_ZN5SVR_QD2Ev = comdat any

$_ZNK5SVR_Q5get_QEii = comdat any

$_ZNK5SVR_Q6get_QDEv = comdat any

$_ZNK5SVR_Q10swap_indexEii = comdat any

$_ZN5SVR_QD0Ev = comdat any

$_ZTS7QMatrix = comdat any

$_ZTI7QMatrix = comdat any

$_ZTV7QMatrix = comdat any

$_ZTV5SVC_Q = comdat any

$_ZTS5SVC_Q = comdat any

$_ZTI5SVC_Q = comdat any

$_ZTV11ONE_CLASS_Q = comdat any

$_ZTS11ONE_CLASS_Q = comdat any

$_ZTI11ONE_CLASS_Q = comdat any

$_ZTV5SVR_Q = comdat any

$_ZTS5SVR_Q = comdat any

$_ZTI5SVR_Q = comdat any

@libsvm_version = dso_local global i32 325, align 4
@_ZTV6Kernel = dso_local unnamed_addr constant { [7 x i8*] } { [7 x i8*] [i8* null, i8* bitcast ({ i8*, i8*, i8* }* @_ZTI6Kernel to i8*), i8* bitcast (void ()* @__cxa_pure_virtual to i8*), i8* bitcast (void ()* @__cxa_pure_virtual to i8*), i8* bitcast (void (%class.Kernel*, i32, i32)* @_ZNK6Kernel10swap_indexEii to i8*), i8* bitcast (void (%class.Kernel*)* @_ZN6KernelD1Ev to i8*), i8* bitcast (void (%class.Kernel*)* @_ZN6KernelD0Ev to i8*)] }, align 8
@.str = private unnamed_addr constant [36 x i8] c"\0AWARNING: using -h 0 may be faster\0A\00", align 1
@.str.1 = private unnamed_addr constant [2 x i8] c".\00", align 1
@.str.2 = private unnamed_addr constant [2 x i8] c"*\00", align 1
@stderr = external dso_local global %struct._IO_FILE*, align 8
@.str.3 = private unnamed_addr constant [45 x i8] c"\0AWARNING: reaching max number of iterations\0A\00", align 1
@.str.4 = private unnamed_addr constant [36 x i8] c"\0Aoptimization finished, #iter = %d\0A\00", align 1
@.str.5 = private unnamed_addr constant [67 x i8] c"WARNING: training data in only one class. See README for details.\0A\00", align 1
@.str.6 = private unnamed_addr constant [58 x i8] c"WARNING: class label %d specified in weight is not found\0A\00", align 1
@.str.7 = private unnamed_addr constant [16 x i8] c"Total nSV = %d\0A\00", align 1
@.str.8 = private unnamed_addr constant [101 x i8] c"WARNING: # folds > # data. Will use # folds = # data instead (i.e., leave-one-out cross validation)\0A\00", align 1
@.str.9 = private unnamed_addr constant [65 x i8] c"Model doesn't contain information for SVR probability inference\0A\00", align 1
@.str.10 = private unnamed_addr constant [2 x i8] c"w\00", align 1
@.str.11 = private unnamed_addr constant [2 x i8] c"C\00", align 1
@.str.12 = private unnamed_addr constant [13 x i8] c"svm_type %s\0A\00", align 1
@_ZL14svm_type_table = internal global [6 x i8*] [i8* getelementptr inbounds ([6 x i8], [6 x i8]* @.str.71, i32 0, i32 0), i8* getelementptr inbounds ([7 x i8], [7 x i8]* @.str.72, i32 0, i32 0), i8* getelementptr inbounds ([10 x i8], [10 x i8]* @.str.73, i32 0, i32 0), i8* getelementptr inbounds ([12 x i8], [12 x i8]* @.str.74, i32 0, i32 0), i8* getelementptr inbounds ([7 x i8], [7 x i8]* @.str.75, i32 0, i32 0), i8* null], align 16
@.str.13 = private unnamed_addr constant [16 x i8] c"kernel_type %s\0A\00", align 1
@_ZL17kernel_type_table = internal global [6 x i8*] [i8* getelementptr inbounds ([7 x i8], [7 x i8]* @.str.76, i32 0, i32 0), i8* getelementptr inbounds ([11 x i8], [11 x i8]* @.str.77, i32 0, i32 0), i8* getelementptr inbounds ([4 x i8], [4 x i8]* @.str.78, i32 0, i32 0), i8* getelementptr inbounds ([8 x i8], [8 x i8]* @.str.79, i32 0, i32 0), i8* getelementptr inbounds ([12 x i8], [12 x i8]* @.str.80, i32 0, i32 0), i8* null], align 16
@.str.14 = private unnamed_addr constant [11 x i8] c"degree %d\0A\00", align 1
@.str.15 = private unnamed_addr constant [13 x i8] c"gamma %.17g\0A\00", align 1
@.str.16 = private unnamed_addr constant [13 x i8] c"coef0 %.17g\0A\00", align 1
@.str.17 = private unnamed_addr constant [13 x i8] c"nr_class %d\0A\00", align 1
@.str.18 = private unnamed_addr constant [13 x i8] c"total_sv %d\0A\00", align 1
@.str.19 = private unnamed_addr constant [4 x i8] c"rho\00", align 1
@.str.20 = private unnamed_addr constant [7 x i8] c" %.17g\00", align 1
@.str.21 = private unnamed_addr constant [2 x i8] c"\0A\00", align 1
@.str.22 = private unnamed_addr constant [6 x i8] c"label\00", align 1
@.str.23 = private unnamed_addr constant [4 x i8] c" %d\00", align 1
@.str.24 = private unnamed_addr constant [6 x i8] c"probA\00", align 1
@.str.25 = private unnamed_addr constant [6 x i8] c"probB\00", align 1
@.str.26 = private unnamed_addr constant [6 x i8] c"nr_sv\00", align 1
@.str.27 = private unnamed_addr constant [4 x i8] c"SV\0A\00", align 1
@.str.28 = private unnamed_addr constant [7 x i8] c"%.17g \00", align 1
@.str.29 = private unnamed_addr constant [6 x i8] c"0:%d \00", align 1
@.str.30 = private unnamed_addr constant [9 x i8] c"%d:%.8g \00", align 1
@.str.31 = private unnamed_addr constant [5 x i8] c"%80s\00", align 1
@.str.32 = private unnamed_addr constant [9 x i8] c"svm_type\00", align 1
@.str.33 = private unnamed_addr constant [19 x i8] c"unknown svm type.\0A\00", align 1
@.str.34 = private unnamed_addr constant [12 x i8] c"kernel_type\00", align 1
@.str.35 = private unnamed_addr constant [26 x i8] c"unknown kernel function.\0A\00", align 1
@.str.36 = private unnamed_addr constant [7 x i8] c"degree\00", align 1
@.str.37 = private unnamed_addr constant [3 x i8] c"%d\00", align 1
@.str.38 = private unnamed_addr constant [6 x i8] c"gamma\00", align 1
@.str.39 = private unnamed_addr constant [4 x i8] c"%lf\00", align 1
@.str.40 = private unnamed_addr constant [6 x i8] c"coef0\00", align 1
@.str.41 = private unnamed_addr constant [9 x i8] c"nr_class\00", align 1
@.str.42 = private unnamed_addr constant [9 x i8] c"total_sv\00", align 1
@.str.43 = private unnamed_addr constant [3 x i8] c"SV\00", align 1
@.str.44 = private unnamed_addr constant [34 x i8] c"unknown text in model file: [%s]\0A\00", align 1
@.str.45 = private unnamed_addr constant [3 x i8] c"rb\00", align 1
@.str.46 = private unnamed_addr constant [36 x i8] c"ERROR: fscanf failed to read model\0A\00", align 1
@_ZL12max_line_len = internal global i32 0, align 4
@_ZL4line = internal global i8* null, align 8
@.str.47 = private unnamed_addr constant [2 x i8] c":\00", align 1
@.str.48 = private unnamed_addr constant [3 x i8] c" \09\00", align 1
@.str.49 = private unnamed_addr constant [17 x i8] c"unknown svm type\00", align 1
@.str.50 = private unnamed_addr constant [20 x i8] c"unknown kernel type\00", align 1
@.str.51 = private unnamed_addr constant [10 x i8] c"gamma < 0\00", align 1
@.str.52 = private unnamed_addr constant [32 x i8] c"degree of polynomial kernel < 0\00", align 1
@.str.53 = private unnamed_addr constant [16 x i8] c"cache_size <= 0\00", align 1
@.str.54 = private unnamed_addr constant [9 x i8] c"eps <= 0\00", align 1
@.str.55 = private unnamed_addr constant [7 x i8] c"C <= 0\00", align 1
@.str.56 = private unnamed_addr constant [18 x i8] c"nu <= 0 or nu > 1\00", align 1
@.str.57 = private unnamed_addr constant [6 x i8] c"p < 0\00", align 1
@.str.58 = private unnamed_addr constant [34 x i8] c"shrinking != 0 and shrinking != 1\00", align 1
@.str.59 = private unnamed_addr constant [38 x i8] c"probability != 0 and probability != 1\00", align 1
@.str.60 = private unnamed_addr constant [51 x i8] c"one-class SVM probability output not supported yet\00", align 1
@.str.61 = private unnamed_addr constant [27 x i8] c"specified nu is infeasible\00", align 1
@_ZL16svm_print_string = internal global void (i8*)* @_ZL19print_string_stdoutPKc, align 8
@_ZTVN10__cxxabiv120__si_class_type_infoE = external dso_local global i8*
@_ZTS6Kernel = dso_local constant [8 x i8] c"6Kernel\00", align 1
@_ZTVN10__cxxabiv117__class_type_infoE = external dso_local global i8*
@_ZTS7QMatrix = linkonce_odr dso_local constant [9 x i8] c"7QMatrix\00", comdat, align 1
@_ZTI7QMatrix = linkonce_odr dso_local constant { i8*, i8* } { i8* bitcast (i8** getelementptr inbounds (i8*, i8** @_ZTVN10__cxxabiv117__class_type_infoE, i64 2) to i8*), i8* getelementptr inbounds ([9 x i8], [9 x i8]* @_ZTS7QMatrix, i32 0, i32 0) }, comdat, align 8
@_ZTI6Kernel = dso_local constant { i8*, i8*, i8* } { i8* bitcast (i8** getelementptr inbounds (i8*, i8** @_ZTVN10__cxxabiv120__si_class_type_infoE, i64 2) to i8*), i8* getelementptr inbounds ([8 x i8], [8 x i8]* @_ZTS6Kernel, i32 0, i32 0), i8* bitcast ({ i8*, i8* }* @_ZTI7QMatrix to i8*) }, align 8
@_ZTV6Solver = dso_local unnamed_addr constant { [7 x i8*] } { [7 x i8*] [i8* null, i8* bitcast ({ i8*, i8* }* @_ZTI6Solver to i8*), i8* bitcast (void (%class.Solver*)* @_ZN6SolverD2Ev to i8*), i8* bitcast (void (%class.Solver*)* @_ZN6SolverD0Ev to i8*), i8* bitcast (i32 (%class.Solver*, i32*, i32*)* @_ZN6Solver18select_working_setERiS0_ to i8*), i8* bitcast (double (%class.Solver*)* @_ZN6Solver13calculate_rhoEv to i8*), i8* bitcast (void (%class.Solver*)* @_ZN6Solver12do_shrinkingEv to i8*)] }, align 8
@_ZTS6Solver = dso_local constant [8 x i8] c"6Solver\00", align 1
@_ZTI6Solver = dso_local constant { i8*, i8* } { i8* bitcast (i8** getelementptr inbounds (i8*, i8** @_ZTVN10__cxxabiv117__class_type_infoE, i64 2) to i8*), i8* getelementptr inbounds ([8 x i8], [8 x i8]* @_ZTS6Solver, i32 0, i32 0) }, align 8
@_ZTV9Solver_NU = dso_local unnamed_addr constant { [7 x i8*] } { [7 x i8*] [i8* null, i8* bitcast ({ i8*, i8*, i8* }* @_ZTI9Solver_NU to i8*), i8* bitcast (void (%class.Solver_NU*)* @_ZN9Solver_NUD2Ev to i8*), i8* bitcast (void (%class.Solver_NU*)* @_ZN9Solver_NUD0Ev to i8*), i8* bitcast (i32 (%class.Solver_NU*, i32*, i32*)* @_ZN9Solver_NU18select_working_setERiS0_ to i8*), i8* bitcast (double (%class.Solver_NU*)* @_ZN9Solver_NU13calculate_rhoEv to i8*), i8* bitcast (void (%class.Solver_NU*)* @_ZN9Solver_NU12do_shrinkingEv to i8*)] }, align 8
@_ZTS9Solver_NU = dso_local constant [11 x i8] c"9Solver_NU\00", align 1
@_ZTI9Solver_NU = dso_local constant { i8*, i8*, i8* } { i8* bitcast (i8** getelementptr inbounds (i8*, i8** @_ZTVN10__cxxabiv120__si_class_type_infoE, i64 2) to i8*), i8* getelementptr inbounds ([11 x i8], [11 x i8]* @_ZTS9Solver_NU, i32 0, i32 0), i8* bitcast ({ i8*, i8* }* @_ZTI6Solver to i8*) }, align 8
@_ZTV7QMatrix = linkonce_odr dso_local unnamed_addr constant { [7 x i8*] } { [7 x i8*] [i8* null, i8* bitcast ({ i8*, i8* }* @_ZTI7QMatrix to i8*), i8* bitcast (void ()* @__cxa_pure_virtual to i8*), i8* bitcast (void ()* @__cxa_pure_virtual to i8*), i8* bitcast (void ()* @__cxa_pure_virtual to i8*), i8* bitcast (void (%class.QMatrix*)* @_ZN7QMatrixD2Ev to i8*), i8* bitcast (void (%class.QMatrix*)* @_ZN7QMatrixD0Ev to i8*)] }, comdat, align 8
@.str.62 = private unnamed_addr constant [122 x i8] c"Prob. model for test data: target value = predicted value + z,\0Az: Laplace distribution e^(-|z|/sigma)/(2sigma),sigma= %g\0A\00", align 1
@.str.63 = private unnamed_addr constant [20 x i8] c"obj = %f, rho = %f\0A\00", align 1
@.str.64 = private unnamed_addr constant [21 x i8] c"nSV = %d, nBSV = %d\0A\00", align 1
@.str.65 = private unnamed_addr constant [9 x i8] c"nu = %f\0A\00", align 1
@_ZTV5SVC_Q = linkonce_odr dso_local unnamed_addr constant { [7 x i8*] } { [7 x i8*] [i8* null, i8* bitcast ({ i8*, i8*, i8* }* @_ZTI5SVC_Q to i8*), i8* bitcast (float* (%class.SVC_Q*, i32, i32)* @_ZNK5SVC_Q5get_QEii to i8*), i8* bitcast (double* (%class.SVC_Q*)* @_ZNK5SVC_Q6get_QDEv to i8*), i8* bitcast (void (%class.SVC_Q*, i32, i32)* @_ZNK5SVC_Q10swap_indexEii to i8*), i8* bitcast (void (%class.SVC_Q*)* @_ZN5SVC_QD2Ev to i8*), i8* bitcast (void (%class.SVC_Q*)* @_ZN5SVC_QD0Ev to i8*)] }, comdat, align 8
@_ZTS5SVC_Q = linkonce_odr dso_local constant [7 x i8] c"5SVC_Q\00", comdat, align 1
@_ZTI5SVC_Q = linkonce_odr dso_local constant { i8*, i8*, i8* } { i8* bitcast (i8** getelementptr inbounds (i8*, i8** @_ZTVN10__cxxabiv120__si_class_type_infoE, i64 2) to i8*), i8* getelementptr inbounds ([7 x i8], [7 x i8]* @_ZTS5SVC_Q, i32 0, i32 0), i8* bitcast ({ i8*, i8*, i8* }* @_ZTI6Kernel to i8*) }, comdat, align 8
@.str.66 = private unnamed_addr constant [8 x i8] c"C = %f\0A\00", align 1
@_ZTV11ONE_CLASS_Q = linkonce_odr dso_local unnamed_addr constant { [7 x i8*] } { [7 x i8*] [i8* null, i8* bitcast ({ i8*, i8*, i8* }* @_ZTI11ONE_CLASS_Q to i8*), i8* bitcast (float* (%class.ONE_CLASS_Q*, i32, i32)* @_ZNK11ONE_CLASS_Q5get_QEii to i8*), i8* bitcast (double* (%class.ONE_CLASS_Q*)* @_ZNK11ONE_CLASS_Q6get_QDEv to i8*), i8* bitcast (void (%class.ONE_CLASS_Q*, i32, i32)* @_ZNK11ONE_CLASS_Q10swap_indexEii to i8*), i8* bitcast (void (%class.ONE_CLASS_Q*)* @_ZN11ONE_CLASS_QD2Ev to i8*), i8* bitcast (void (%class.ONE_CLASS_Q*)* @_ZN11ONE_CLASS_QD0Ev to i8*)] }, comdat, align 8
@_ZTS11ONE_CLASS_Q = linkonce_odr dso_local constant [14 x i8] c"11ONE_CLASS_Q\00", comdat, align 1
@_ZTI11ONE_CLASS_Q = linkonce_odr dso_local constant { i8*, i8*, i8* } { i8* bitcast (i8** getelementptr inbounds (i8*, i8** @_ZTVN10__cxxabiv120__si_class_type_infoE, i64 2) to i8*), i8* getelementptr inbounds ([14 x i8], [14 x i8]* @_ZTS11ONE_CLASS_Q, i32 0, i32 0), i8* bitcast ({ i8*, i8*, i8* }* @_ZTI6Kernel to i8*) }, comdat, align 8
@_ZTV5SVR_Q = linkonce_odr dso_local unnamed_addr constant { [7 x i8*] } { [7 x i8*] [i8* null, i8* bitcast ({ i8*, i8*, i8* }* @_ZTI5SVR_Q to i8*), i8* bitcast (float* (%class.SVR_Q*, i32, i32)* @_ZNK5SVR_Q5get_QEii to i8*), i8* bitcast (double* (%class.SVR_Q*)* @_ZNK5SVR_Q6get_QDEv to i8*), i8* bitcast (void (%class.SVR_Q*, i32, i32)* @_ZNK5SVR_Q10swap_indexEii to i8*), i8* bitcast (void (%class.SVR_Q*)* @_ZN5SVR_QD2Ev to i8*), i8* bitcast (void (%class.SVR_Q*)* @_ZN5SVR_QD0Ev to i8*)] }, comdat, align 8
@_ZTS5SVR_Q = linkonce_odr dso_local constant [7 x i8] c"5SVR_Q\00", comdat, align 1
@_ZTI5SVR_Q = linkonce_odr dso_local constant { i8*, i8*, i8* } { i8* bitcast (i8** getelementptr inbounds (i8*, i8** @_ZTVN10__cxxabiv120__si_class_type_infoE, i64 2) to i8*), i8* getelementptr inbounds ([7 x i8], [7 x i8]* @_ZTS5SVR_Q, i32 0, i32 0), i8* bitcast ({ i8*, i8*, i8* }* @_ZTI6Kernel to i8*) }, comdat, align 8
@.str.67 = private unnamed_addr constant [14 x i8] c"epsilon = %f\0A\00", align 1
@.str.68 = private unnamed_addr constant [54 x i8] c"Line search fails in two-class probability estimates\0A\00", align 1
@.str.69 = private unnamed_addr constant [64 x i8] c"Reaching maximal iterations in two-class probability estimates\0A\00", align 1
@.str.70 = private unnamed_addr constant [37 x i8] c"Exceeds max_iter in multiclass_prob\0A\00", align 1
@.str.71 = private unnamed_addr constant [6 x i8] c"c_svc\00", align 1
@.str.72 = private unnamed_addr constant [7 x i8] c"nu_svc\00", align 1
@.str.73 = private unnamed_addr constant [10 x i8] c"one_class\00", align 1
@.str.74 = private unnamed_addr constant [12 x i8] c"epsilon_svr\00", align 1
@.str.75 = private unnamed_addr constant [7 x i8] c"nu_svr\00", align 1
@.str.76 = private unnamed_addr constant [7 x i8] c"linear\00", align 1
@.str.77 = private unnamed_addr constant [11 x i8] c"polynomial\00", align 1
@.str.78 = private unnamed_addr constant [4 x i8] c"rbf\00", align 1
@.str.79 = private unnamed_addr constant [8 x i8] c"sigmoid\00", align 1
@.str.80 = private unnamed_addr constant [12 x i8] c"precomputed\00", align 1
@stdout = external dso_local global %struct._IO_FILE*, align 8

@_ZN5CacheC1Eil = dso_local unnamed_addr alias void (%class.Cache*, i32, i64), void (%class.Cache*, i32, i64)* @_ZN5CacheC2Eil
@_ZN5CacheD1Ev = dso_local unnamed_addr alias void (%class.Cache*), void (%class.Cache*)* @_ZN5CacheD2Ev
@_ZN6KernelD1Ev = dso_local unnamed_addr alias void (%class.Kernel*), void (%class.Kernel*)* @_ZN6KernelD2Ev

; Function Attrs: noinline optnone uwtable
define dso_local void @_ZN5CacheC2Eil(%class.Cache* noundef nonnull align 8 dereferenceable(56) %0, i32 noundef %1, i64 noundef %2) unnamed_addr #0 align 2 {
  %4 = alloca %class.Cache*, align 8
  %5 = alloca i32, align 4
  %6 = alloca i64, align 8
  store %class.Cache* %0, %class.Cache** %4, align 8
  store i32 %1, i32* %5, align 4
  store i64 %2, i64* %6, align 8
  %7 = load %class.Cache*, %class.Cache** %4, align 8
  %8 = getelementptr inbounds %class.Cache, %class.Cache* %7, i32 0, i32 0
  %9 = load i32, i32* %5, align 4
  store i32 %9, i32* %8, align 8
  %10 = getelementptr inbounds %class.Cache, %class.Cache* %7, i32 0, i32 1
  %11 = load i64, i64* %6, align 8
  store i64 %11, i64* %10, align 8
  %12 = getelementptr inbounds %class.Cache, %class.Cache* %7, i32 0, i32 3
  %13 = getelementptr inbounds %class.Cache, %class.Cache* %7, i32 0, i32 0
  %14 = load i32, i32* %13, align 8
  %15 = sext i32 %14 to i64
  %16 = call noalias align 16 i8* @calloc(i64 noundef %15, i64 noundef 32) #13
  %17 = bitcast i8* %16 to %"struct.Cache::head_t"*
  %18 = getelementptr inbounds %class.Cache, %class.Cache* %7, i32 0, i32 2
  store %"struct.Cache::head_t"* %17, %"struct.Cache::head_t"** %18, align 8
  %19 = getelementptr inbounds %class.Cache, %class.Cache* %7, i32 0, i32 1
  %20 = load i64, i64* %19, align 8
  %21 = udiv i64 %20, 4
  store i64 %21, i64* %19, align 8
  %22 = getelementptr inbounds %class.Cache, %class.Cache* %7, i32 0, i32 0
  %23 = load i32, i32* %22, align 8
  %24 = sext i32 %23 to i64
  %25 = mul i64 %24, 32
  %26 = udiv i64 %25, 4
  %27 = getelementptr inbounds %class.Cache, %class.Cache* %7, i32 0, i32 1
  %28 = load i64, i64* %27, align 8
  %29 = sub i64 %28, %26
  store i64 %29, i64* %27, align 8
  %30 = getelementptr inbounds %class.Cache, %class.Cache* %7, i32 0, i32 1
  %31 = load i64, i64* %30, align 8
  %32 = getelementptr inbounds %class.Cache, %class.Cache* %7, i32 0, i32 0
  %33 = load i32, i32* %32, align 8
  %34 = sext i32 %33 to i64
  %35 = mul nsw i64 2, %34
  %36 = call noundef i64 @_ZL3maxIlET_S0_S0_(i64 noundef %31, i64 noundef %35)
  %37 = getelementptr inbounds %class.Cache, %class.Cache* %7, i32 0, i32 1
  store i64 %36, i64* %37, align 8
  %38 = getelementptr inbounds %class.Cache, %class.Cache* %7, i32 0, i32 3
  %39 = getelementptr inbounds %class.Cache, %class.Cache* %7, i32 0, i32 3
  %40 = getelementptr inbounds %"struct.Cache::head_t", %"struct.Cache::head_t"* %39, i32 0, i32 0
  store %"struct.Cache::head_t"* %38, %"struct.Cache::head_t"** %40, align 8
  %41 = getelementptr inbounds %class.Cache, %class.Cache* %7, i32 0, i32 3
  %42 = getelementptr inbounds %"struct.Cache::head_t", %"struct.Cache::head_t"* %41, i32 0, i32 1
  store %"struct.Cache::head_t"* %38, %"struct.Cache::head_t"** %42, align 8
  ret void
}

; Function Attrs: nounwind
declare dso_local noalias i8* @calloc(i64 noundef, i64 noundef) #1

; Function Attrs: mustprogress noinline nounwind optnone uwtable
define internal noundef i64 @_ZL3maxIlET_S0_S0_(i64 noundef %0, i64 noundef %1) #2 {
  %3 = alloca i64, align 8
  %4 = alloca i64, align 8
  store i64 %0, i64* %3, align 8
  store i64 %1, i64* %4, align 8
  %5 = load i64, i64* %3, align 8
  %6 = load i64, i64* %4, align 8
  %7 = icmp sgt i64 %5, %6
  br i1 %7, label %8, label %10

8:                                                ; preds = %2
  %9 = load i64, i64* %3, align 8
  br label %12

10:                                               ; preds = %2
  %11 = load i64, i64* %4, align 8
  br label %12

12:                                               ; preds = %10, %8
  %13 = phi i64 [ %9, %8 ], [ %11, %10 ]
  ret i64 %13
}

; Function Attrs: noinline nounwind optnone uwtable
define dso_local void @_ZN5CacheD2Ev(%class.Cache* noundef nonnull align 8 dereferenceable(56) %0) unnamed_addr #3 align 2 {
  %2 = alloca %class.Cache*, align 8
  %3 = alloca %"struct.Cache::head_t"*, align 8
  store %class.Cache* %0, %class.Cache** %2, align 8
  %4 = load %class.Cache*, %class.Cache** %2, align 8
  %5 = getelementptr inbounds %class.Cache, %class.Cache* %4, i32 0, i32 3
  %6 = getelementptr inbounds %"struct.Cache::head_t", %"struct.Cache::head_t"* %5, i32 0, i32 1
  %7 = load %"struct.Cache::head_t"*, %"struct.Cache::head_t"** %6, align 8
  store %"struct.Cache::head_t"* %7, %"struct.Cache::head_t"** %3, align 8
  br label %8

8:                                                ; preds = %17, %1
  %9 = load %"struct.Cache::head_t"*, %"struct.Cache::head_t"** %3, align 8
  %10 = getelementptr inbounds %class.Cache, %class.Cache* %4, i32 0, i32 3
  %11 = icmp ne %"struct.Cache::head_t"* %9, %10
  br i1 %11, label %12, label %21

12:                                               ; preds = %8
  %13 = load %"struct.Cache::head_t"*, %"struct.Cache::head_t"** %3, align 8
  %14 = getelementptr inbounds %"struct.Cache::head_t", %"struct.Cache::head_t"* %13, i32 0, i32 2
  %15 = load float*, float** %14, align 8
  %16 = bitcast float* %15 to i8*
  call void @free(i8* noundef %16) #13
  br label %17

17:                                               ; preds = %12
  %18 = load %"struct.Cache::head_t"*, %"struct.Cache::head_t"** %3, align 8
  %19 = getelementptr inbounds %"struct.Cache::head_t", %"struct.Cache::head_t"* %18, i32 0, i32 1
  %20 = load %"struct.Cache::head_t"*, %"struct.Cache::head_t"** %19, align 8
  store %"struct.Cache::head_t"* %20, %"struct.Cache::head_t"** %3, align 8
  br label %8, !llvm.loop !4

21:                                               ; preds = %8
  %22 = getelementptr inbounds %class.Cache, %class.Cache* %4, i32 0, i32 2
  %23 = load %"struct.Cache::head_t"*, %"struct.Cache::head_t"** %22, align 8
  %24 = bitcast %"struct.Cache::head_t"* %23 to i8*
  call void @free(i8* noundef %24) #13
  ret void
}

; Function Attrs: nounwind
declare dso_local void @free(i8* noundef) #1

; Function Attrs: mustprogress noinline nounwind optnone uwtable
define dso_local void @_ZN5Cache10lru_deleteEPNS_6head_tE(%class.Cache* noundef nonnull align 8 dereferenceable(56) %0, %"struct.Cache::head_t"* noundef %1) #2 align 2 {
  %3 = alloca %class.Cache*, align 8
  %4 = alloca %"struct.Cache::head_t"*, align 8
  store %class.Cache* %0, %class.Cache** %3, align 8
  store %"struct.Cache::head_t"* %1, %"struct.Cache::head_t"** %4, align 8
  %5 = load %class.Cache*, %class.Cache** %3, align 8
  %6 = load %"struct.Cache::head_t"*, %"struct.Cache::head_t"** %4, align 8
  %7 = getelementptr inbounds %"struct.Cache::head_t", %"struct.Cache::head_t"* %6, i32 0, i32 1
  %8 = load %"struct.Cache::head_t"*, %"struct.Cache::head_t"** %7, align 8
  %9 = load %"struct.Cache::head_t"*, %"struct.Cache::head_t"** %4, align 8
  %10 = getelementptr inbounds %"struct.Cache::head_t", %"struct.Cache::head_t"* %9, i32 0, i32 0
  %11 = load %"struct.Cache::head_t"*, %"struct.Cache::head_t"** %10, align 8
  %12 = getelementptr inbounds %"struct.Cache::head_t", %"struct.Cache::head_t"* %11, i32 0, i32 1
  store %"struct.Cache::head_t"* %8, %"struct.Cache::head_t"** %12, align 8
  %13 = load %"struct.Cache::head_t"*, %"struct.Cache::head_t"** %4, align 8
  %14 = getelementptr inbounds %"struct.Cache::head_t", %"struct.Cache::head_t"* %13, i32 0, i32 0
  %15 = load %"struct.Cache::head_t"*, %"struct.Cache::head_t"** %14, align 8
  %16 = load %"struct.Cache::head_t"*, %"struct.Cache::head_t"** %4, align 8
  %17 = getelementptr inbounds %"struct.Cache::head_t", %"struct.Cache::head_t"* %16, i32 0, i32 1
  %18 = load %"struct.Cache::head_t"*, %"struct.Cache::head_t"** %17, align 8
  %19 = getelementptr inbounds %"struct.Cache::head_t", %"struct.Cache::head_t"* %18, i32 0, i32 0
  store %"struct.Cache::head_t"* %15, %"struct.Cache::head_t"** %19, align 8
  ret void
}

; Function Attrs: mustprogress noinline nounwind optnone uwtable
define dso_local void @_ZN5Cache10lru_insertEPNS_6head_tE(%class.Cache* noundef nonnull align 8 dereferenceable(56) %0, %"struct.Cache::head_t"* noundef %1) #2 align 2 {
  %3 = alloca %class.Cache*, align 8
  %4 = alloca %"struct.Cache::head_t"*, align 8
  store %class.Cache* %0, %class.Cache** %3, align 8
  store %"struct.Cache::head_t"* %1, %"struct.Cache::head_t"** %4, align 8
  %5 = load %class.Cache*, %class.Cache** %3, align 8
  %6 = getelementptr inbounds %class.Cache, %class.Cache* %5, i32 0, i32 3
  %7 = load %"struct.Cache::head_t"*, %"struct.Cache::head_t"** %4, align 8
  %8 = getelementptr inbounds %"struct.Cache::head_t", %"struct.Cache::head_t"* %7, i32 0, i32 1
  store %"struct.Cache::head_t"* %6, %"struct.Cache::head_t"** %8, align 8
  %9 = getelementptr inbounds %class.Cache, %class.Cache* %5, i32 0, i32 3
  %10 = getelementptr inbounds %"struct.Cache::head_t", %"struct.Cache::head_t"* %9, i32 0, i32 0
  %11 = load %"struct.Cache::head_t"*, %"struct.Cache::head_t"** %10, align 8
  %12 = load %"struct.Cache::head_t"*, %"struct.Cache::head_t"** %4, align 8
  %13 = getelementptr inbounds %"struct.Cache::head_t", %"struct.Cache::head_t"* %12, i32 0, i32 0
  store %"struct.Cache::head_t"* %11, %"struct.Cache::head_t"** %13, align 8
  %14 = load %"struct.Cache::head_t"*, %"struct.Cache::head_t"** %4, align 8
  %15 = load %"struct.Cache::head_t"*, %"struct.Cache::head_t"** %4, align 8
  %16 = getelementptr inbounds %"struct.Cache::head_t", %"struct.Cache::head_t"* %15, i32 0, i32 0
  %17 = load %"struct.Cache::head_t"*, %"struct.Cache::head_t"** %16, align 8
  %18 = getelementptr inbounds %"struct.Cache::head_t", %"struct.Cache::head_t"* %17, i32 0, i32 1
  store %"struct.Cache::head_t"* %14, %"struct.Cache::head_t"** %18, align 8
  %19 = load %"struct.Cache::head_t"*, %"struct.Cache::head_t"** %4, align 8
  %20 = load %"struct.Cache::head_t"*, %"struct.Cache::head_t"** %4, align 8
  %21 = getelementptr inbounds %"struct.Cache::head_t", %"struct.Cache::head_t"* %20, i32 0, i32 1
  %22 = load %"struct.Cache::head_t"*, %"struct.Cache::head_t"** %21, align 8
  %23 = getelementptr inbounds %"struct.Cache::head_t", %"struct.Cache::head_t"* %22, i32 0, i32 0
  store %"struct.Cache::head_t"* %19, %"struct.Cache::head_t"** %23, align 8
  ret void
}

; Function Attrs: mustprogress noinline optnone uwtable
define dso_local noundef i32 @_ZN5Cache8get_dataEiPPfi(%class.Cache* noundef nonnull align 8 dereferenceable(56) %0, i32 noundef %1, float** noundef %2, i32 noundef %3) #4 align 2 {
  %5 = alloca %class.Cache*, align 8
  %6 = alloca i32, align 4
  %7 = alloca float**, align 8
  %8 = alloca i32, align 4
  %9 = alloca %"struct.Cache::head_t"*, align 8
  %10 = alloca i32, align 4
  %11 = alloca %"struct.Cache::head_t"*, align 8
  store %class.Cache* %0, %class.Cache** %5, align 8
  store i32 %1, i32* %6, align 4
  store float** %2, float*** %7, align 8
  store i32 %3, i32* %8, align 4
  %12 = load %class.Cache*, %class.Cache** %5, align 8
  %13 = getelementptr inbounds %class.Cache, %class.Cache* %12, i32 0, i32 2
  %14 = load %"struct.Cache::head_t"*, %"struct.Cache::head_t"** %13, align 8
  %15 = load i32, i32* %6, align 4
  %16 = sext i32 %15 to i64
  %17 = getelementptr inbounds %"struct.Cache::head_t", %"struct.Cache::head_t"* %14, i64 %16
  store %"struct.Cache::head_t"* %17, %"struct.Cache::head_t"** %9, align 8
  %18 = load %"struct.Cache::head_t"*, %"struct.Cache::head_t"** %9, align 8
  %19 = getelementptr inbounds %"struct.Cache::head_t", %"struct.Cache::head_t"* %18, i32 0, i32 3
  %20 = load i32, i32* %19, align 8
  %21 = icmp ne i32 %20, 0
  br i1 %21, label %22, label %24

22:                                               ; preds = %4
  %23 = load %"struct.Cache::head_t"*, %"struct.Cache::head_t"** %9, align 8
  call void @_ZN5Cache10lru_deleteEPNS_6head_tE(%class.Cache* noundef nonnull align 8 dereferenceable(56) %12, %"struct.Cache::head_t"* noundef %23)
  br label %24

24:                                               ; preds = %22, %4
  %25 = load i32, i32* %8, align 4
  %26 = load %"struct.Cache::head_t"*, %"struct.Cache::head_t"** %9, align 8
  %27 = getelementptr inbounds %"struct.Cache::head_t", %"struct.Cache::head_t"* %26, i32 0, i32 3
  %28 = load i32, i32* %27, align 8
  %29 = sub nsw i32 %25, %28
  store i32 %29, i32* %10, align 4
  %30 = load i32, i32* %10, align 4
  %31 = icmp sgt i32 %30, 0
  br i1 %31, label %32, label %78

32:                                               ; preds = %24
  br label %33

33:                                               ; preds = %39, %32
  %34 = getelementptr inbounds %class.Cache, %class.Cache* %12, i32 0, i32 1
  %35 = load i64, i64* %34, align 8
  %36 = load i32, i32* %10, align 4
  %37 = sext i32 %36 to i64
  %38 = icmp slt i64 %35, %37
  br i1 %38, label %39, label %59

39:                                               ; preds = %33
  %40 = getelementptr inbounds %class.Cache, %class.Cache* %12, i32 0, i32 3
  %41 = getelementptr inbounds %"struct.Cache::head_t", %"struct.Cache::head_t"* %40, i32 0, i32 1
  %42 = load %"struct.Cache::head_t"*, %"struct.Cache::head_t"** %41, align 8
  store %"struct.Cache::head_t"* %42, %"struct.Cache::head_t"** %11, align 8
  %43 = load %"struct.Cache::head_t"*, %"struct.Cache::head_t"** %11, align 8
  call void @_ZN5Cache10lru_deleteEPNS_6head_tE(%class.Cache* noundef nonnull align 8 dereferenceable(56) %12, %"struct.Cache::head_t"* noundef %43)
  %44 = load %"struct.Cache::head_t"*, %"struct.Cache::head_t"** %11, align 8
  %45 = getelementptr inbounds %"struct.Cache::head_t", %"struct.Cache::head_t"* %44, i32 0, i32 2
  %46 = load float*, float** %45, align 8
  %47 = bitcast float* %46 to i8*
  call void @free(i8* noundef %47) #13
  %48 = load %"struct.Cache::head_t"*, %"struct.Cache::head_t"** %11, align 8
  %49 = getelementptr inbounds %"struct.Cache::head_t", %"struct.Cache::head_t"* %48, i32 0, i32 3
  %50 = load i32, i32* %49, align 8
  %51 = sext i32 %50 to i64
  %52 = getelementptr inbounds %class.Cache, %class.Cache* %12, i32 0, i32 1
  %53 = load i64, i64* %52, align 8
  %54 = add nsw i64 %53, %51
  store i64 %54, i64* %52, align 8
  %55 = load %"struct.Cache::head_t"*, %"struct.Cache::head_t"** %11, align 8
  %56 = getelementptr inbounds %"struct.Cache::head_t", %"struct.Cache::head_t"* %55, i32 0, i32 2
  store float* null, float** %56, align 8
  %57 = load %"struct.Cache::head_t"*, %"struct.Cache::head_t"** %11, align 8
  %58 = getelementptr inbounds %"struct.Cache::head_t", %"struct.Cache::head_t"* %57, i32 0, i32 3
  store i32 0, i32* %58, align 8
  br label %33, !llvm.loop !6

59:                                               ; preds = %33
  %60 = load %"struct.Cache::head_t"*, %"struct.Cache::head_t"** %9, align 8
  %61 = getelementptr inbounds %"struct.Cache::head_t", %"struct.Cache::head_t"* %60, i32 0, i32 2
  %62 = load float*, float** %61, align 8
  %63 = bitcast float* %62 to i8*
  %64 = load i32, i32* %8, align 4
  %65 = sext i32 %64 to i64
  %66 = mul i64 4, %65
  %67 = call align 16 i8* @realloc(i8* noundef %63, i64 noundef %66) #13
  %68 = bitcast i8* %67 to float*
  %69 = load %"struct.Cache::head_t"*, %"struct.Cache::head_t"** %9, align 8
  %70 = getelementptr inbounds %"struct.Cache::head_t", %"struct.Cache::head_t"* %69, i32 0, i32 2
  store float* %68, float** %70, align 8
  %71 = load i32, i32* %10, align 4
  %72 = sext i32 %71 to i64
  %73 = getelementptr inbounds %class.Cache, %class.Cache* %12, i32 0, i32 1
  %74 = load i64, i64* %73, align 8
  %75 = sub nsw i64 %74, %72
  store i64 %75, i64* %73, align 8
  %76 = load %"struct.Cache::head_t"*, %"struct.Cache::head_t"** %9, align 8
  %77 = getelementptr inbounds %"struct.Cache::head_t", %"struct.Cache::head_t"* %76, i32 0, i32 3
  call void @_ZL4swapIiEvRT_S1_(i32* noundef nonnull align 4 dereferenceable(4) %77, i32* noundef nonnull align 4 dereferenceable(4) %8)
  br label %78

78:                                               ; preds = %59, %24
  %79 = load %"struct.Cache::head_t"*, %"struct.Cache::head_t"** %9, align 8
  call void @_ZN5Cache10lru_insertEPNS_6head_tE(%class.Cache* noundef nonnull align 8 dereferenceable(56) %12, %"struct.Cache::head_t"* noundef %79)
  %80 = load %"struct.Cache::head_t"*, %"struct.Cache::head_t"** %9, align 8
  %81 = getelementptr inbounds %"struct.Cache::head_t", %"struct.Cache::head_t"* %80, i32 0, i32 2
  %82 = load float*, float** %81, align 8
  %83 = load float**, float*** %7, align 8
  store float* %82, float** %83, align 8
  %84 = load i32, i32* %8, align 4
  ret i32 %84
}

; Function Attrs: nounwind
declare dso_local i8* @realloc(i8* noundef, i64 noundef) #1

; Function Attrs: mustprogress noinline nounwind optnone uwtable
define internal void @_ZL4swapIiEvRT_S1_(i32* noundef nonnull align 4 dereferenceable(4) %0, i32* noundef nonnull align 4 dereferenceable(4) %1) #2 {
  %3 = alloca i32*, align 8
  %4 = alloca i32*, align 8
  %5 = alloca i32, align 4
  store i32* %0, i32** %3, align 8
  store i32* %1, i32** %4, align 8
  %6 = load i32*, i32** %3, align 8
  %7 = load i32, i32* %6, align 4
  store i32 %7, i32* %5, align 4
  %8 = load i32*, i32** %4, align 8
  %9 = load i32, i32* %8, align 4
  %10 = load i32*, i32** %3, align 8
  store i32 %9, i32* %10, align 4
  %11 = load i32, i32* %5, align 4
  %12 = load i32*, i32** %4, align 8
  store i32 %11, i32* %12, align 4
  ret void
}

; Function Attrs: mustprogress noinline optnone uwtable
define dso_local void @_ZN5Cache10swap_indexEii(%class.Cache* noundef nonnull align 8 dereferenceable(56) %0, i32 noundef %1, i32 noundef %2) #4 align 2 {
  %4 = alloca %class.Cache*, align 8
  %5 = alloca i32, align 4
  %6 = alloca i32, align 4
  %7 = alloca %"struct.Cache::head_t"*, align 8
  store %class.Cache* %0, %class.Cache** %4, align 8
  store i32 %1, i32* %5, align 4
  store i32 %2, i32* %6, align 4
  %8 = load %class.Cache*, %class.Cache** %4, align 8
  %9 = load i32, i32* %5, align 4
  %10 = load i32, i32* %6, align 4
  %11 = icmp eq i32 %9, %10
  br i1 %11, label %12, label %13

12:                                               ; preds = %3
  br label %158

13:                                               ; preds = %3
  %14 = getelementptr inbounds %class.Cache, %class.Cache* %8, i32 0, i32 2
  %15 = load %"struct.Cache::head_t"*, %"struct.Cache::head_t"** %14, align 8
  %16 = load i32, i32* %5, align 4
  %17 = sext i32 %16 to i64
  %18 = getelementptr inbounds %"struct.Cache::head_t", %"struct.Cache::head_t"* %15, i64 %17
  %19 = getelementptr inbounds %"struct.Cache::head_t", %"struct.Cache::head_t"* %18, i32 0, i32 3
  %20 = load i32, i32* %19, align 8
  %21 = icmp ne i32 %20, 0
  br i1 %21, label %22, label %28

22:                                               ; preds = %13
  %23 = getelementptr inbounds %class.Cache, %class.Cache* %8, i32 0, i32 2
  %24 = load %"struct.Cache::head_t"*, %"struct.Cache::head_t"** %23, align 8
  %25 = load i32, i32* %5, align 4
  %26 = sext i32 %25 to i64
  %27 = getelementptr inbounds %"struct.Cache::head_t", %"struct.Cache::head_t"* %24, i64 %26
  call void @_ZN5Cache10lru_deleteEPNS_6head_tE(%class.Cache* noundef nonnull align 8 dereferenceable(56) %8, %"struct.Cache::head_t"* noundef %27)
  br label %28

28:                                               ; preds = %22, %13
  %29 = getelementptr inbounds %class.Cache, %class.Cache* %8, i32 0, i32 2
  %30 = load %"struct.Cache::head_t"*, %"struct.Cache::head_t"** %29, align 8
  %31 = load i32, i32* %6, align 4
  %32 = sext i32 %31 to i64
  %33 = getelementptr inbounds %"struct.Cache::head_t", %"struct.Cache::head_t"* %30, i64 %32
  %34 = getelementptr inbounds %"struct.Cache::head_t", %"struct.Cache::head_t"* %33, i32 0, i32 3
  %35 = load i32, i32* %34, align 8
  %36 = icmp ne i32 %35, 0
  br i1 %36, label %37, label %43

37:                                               ; preds = %28
  %38 = getelementptr inbounds %class.Cache, %class.Cache* %8, i32 0, i32 2
  %39 = load %"struct.Cache::head_t"*, %"struct.Cache::head_t"** %38, align 8
  %40 = load i32, i32* %6, align 4
  %41 = sext i32 %40 to i64
  %42 = getelementptr inbounds %"struct.Cache::head_t", %"struct.Cache::head_t"* %39, i64 %41
  call void @_ZN5Cache10lru_deleteEPNS_6head_tE(%class.Cache* noundef nonnull align 8 dereferenceable(56) %8, %"struct.Cache::head_t"* noundef %42)
  br label %43

43:                                               ; preds = %37, %28
  %44 = getelementptr inbounds %class.Cache, %class.Cache* %8, i32 0, i32 2
  %45 = load %"struct.Cache::head_t"*, %"struct.Cache::head_t"** %44, align 8
  %46 = load i32, i32* %5, align 4
  %47 = sext i32 %46 to i64
  %48 = getelementptr inbounds %"struct.Cache::head_t", %"struct.Cache::head_t"* %45, i64 %47
  %49 = getelementptr inbounds %"struct.Cache::head_t", %"struct.Cache::head_t"* %48, i32 0, i32 2
  %50 = getelementptr inbounds %class.Cache, %class.Cache* %8, i32 0, i32 2
  %51 = load %"struct.Cache::head_t"*, %"struct.Cache::head_t"** %50, align 8
  %52 = load i32, i32* %6, align 4
  %53 = sext i32 %52 to i64
  %54 = getelementptr inbounds %"struct.Cache::head_t", %"struct.Cache::head_t"* %51, i64 %53
  %55 = getelementptr inbounds %"struct.Cache::head_t", %"struct.Cache::head_t"* %54, i32 0, i32 2
  call void @_ZL4swapIPfEvRT_S2_(float** noundef nonnull align 8 dereferenceable(8) %49, float** noundef nonnull align 8 dereferenceable(8) %55)
  %56 = getelementptr inbounds %class.Cache, %class.Cache* %8, i32 0, i32 2
  %57 = load %"struct.Cache::head_t"*, %"struct.Cache::head_t"** %56, align 8
  %58 = load i32, i32* %5, align 4
  %59 = sext i32 %58 to i64
  %60 = getelementptr inbounds %"struct.Cache::head_t", %"struct.Cache::head_t"* %57, i64 %59
  %61 = getelementptr inbounds %"struct.Cache::head_t", %"struct.Cache::head_t"* %60, i32 0, i32 3
  %62 = getelementptr inbounds %class.Cache, %class.Cache* %8, i32 0, i32 2
  %63 = load %"struct.Cache::head_t"*, %"struct.Cache::head_t"** %62, align 8
  %64 = load i32, i32* %6, align 4
  %65 = sext i32 %64 to i64
  %66 = getelementptr inbounds %"struct.Cache::head_t", %"struct.Cache::head_t"* %63, i64 %65
  %67 = getelementptr inbounds %"struct.Cache::head_t", %"struct.Cache::head_t"* %66, i32 0, i32 3
  call void @_ZL4swapIiEvRT_S1_(i32* noundef nonnull align 4 dereferenceable(4) %61, i32* noundef nonnull align 4 dereferenceable(4) %67)
  %68 = getelementptr inbounds %class.Cache, %class.Cache* %8, i32 0, i32 2
  %69 = load %"struct.Cache::head_t"*, %"struct.Cache::head_t"** %68, align 8
  %70 = load i32, i32* %5, align 4
  %71 = sext i32 %70 to i64
  %72 = getelementptr inbounds %"struct.Cache::head_t", %"struct.Cache::head_t"* %69, i64 %71
  %73 = getelementptr inbounds %"struct.Cache::head_t", %"struct.Cache::head_t"* %72, i32 0, i32 3
  %74 = load i32, i32* %73, align 8
  %75 = icmp ne i32 %74, 0
  br i1 %75, label %76, label %82

76:                                               ; preds = %43
  %77 = getelementptr inbounds %class.Cache, %class.Cache* %8, i32 0, i32 2
  %78 = load %"struct.Cache::head_t"*, %"struct.Cache::head_t"** %77, align 8
  %79 = load i32, i32* %5, align 4
  %80 = sext i32 %79 to i64
  %81 = getelementptr inbounds %"struct.Cache::head_t", %"struct.Cache::head_t"* %78, i64 %80
  call void @_ZN5Cache10lru_insertEPNS_6head_tE(%class.Cache* noundef nonnull align 8 dereferenceable(56) %8, %"struct.Cache::head_t"* noundef %81)
  br label %82

82:                                               ; preds = %76, %43
  %83 = getelementptr inbounds %class.Cache, %class.Cache* %8, i32 0, i32 2
  %84 = load %"struct.Cache::head_t"*, %"struct.Cache::head_t"** %83, align 8
  %85 = load i32, i32* %6, align 4
  %86 = sext i32 %85 to i64
  %87 = getelementptr inbounds %"struct.Cache::head_t", %"struct.Cache::head_t"* %84, i64 %86
  %88 = getelementptr inbounds %"struct.Cache::head_t", %"struct.Cache::head_t"* %87, i32 0, i32 3
  %89 = load i32, i32* %88, align 8
  %90 = icmp ne i32 %89, 0
  br i1 %90, label %91, label %97

91:                                               ; preds = %82
  %92 = getelementptr inbounds %class.Cache, %class.Cache* %8, i32 0, i32 2
  %93 = load %"struct.Cache::head_t"*, %"struct.Cache::head_t"** %92, align 8
  %94 = load i32, i32* %6, align 4
  %95 = sext i32 %94 to i64
  %96 = getelementptr inbounds %"struct.Cache::head_t", %"struct.Cache::head_t"* %93, i64 %95
  call void @_ZN5Cache10lru_insertEPNS_6head_tE(%class.Cache* noundef nonnull align 8 dereferenceable(56) %8, %"struct.Cache::head_t"* noundef %96)
  br label %97

97:                                               ; preds = %91, %82
  %98 = load i32, i32* %5, align 4
  %99 = load i32, i32* %6, align 4
  %100 = icmp sgt i32 %98, %99
  br i1 %100, label %101, label %102

101:                                              ; preds = %97
  call void @_ZL4swapIiEvRT_S1_(i32* noundef nonnull align 4 dereferenceable(4) %5, i32* noundef nonnull align 4 dereferenceable(4) %6)
  br label %102

102:                                              ; preds = %101, %97
  %103 = getelementptr inbounds %class.Cache, %class.Cache* %8, i32 0, i32 3
  %104 = getelementptr inbounds %"struct.Cache::head_t", %"struct.Cache::head_t"* %103, i32 0, i32 1
  %105 = load %"struct.Cache::head_t"*, %"struct.Cache::head_t"** %104, align 8
  store %"struct.Cache::head_t"* %105, %"struct.Cache::head_t"** %7, align 8
  br label %106

106:                                              ; preds = %154, %102
  %107 = load %"struct.Cache::head_t"*, %"struct.Cache::head_t"** %7, align 8
  %108 = getelementptr inbounds %class.Cache, %class.Cache* %8, i32 0, i32 3
  %109 = icmp ne %"struct.Cache::head_t"* %107, %108
  br i1 %109, label %110, label %158

110:                                              ; preds = %106
  %111 = load %"struct.Cache::head_t"*, %"struct.Cache::head_t"** %7, align 8
  %112 = getelementptr inbounds %"struct.Cache::head_t", %"struct.Cache::head_t"* %111, i32 0, i32 3
  %113 = load i32, i32* %112, align 8
  %114 = load i32, i32* %5, align 4
  %115 = icmp sgt i32 %113, %114
  br i1 %115, label %116, label %153

116:                                              ; preds = %110
  %117 = load %"struct.Cache::head_t"*, %"struct.Cache::head_t"** %7, align 8
  %118 = getelementptr inbounds %"struct.Cache::head_t", %"struct.Cache::head_t"* %117, i32 0, i32 3
  %119 = load i32, i32* %118, align 8
  %120 = load i32, i32* %6, align 4
  %121 = icmp sgt i32 %119, %120
  br i1 %121, label %122, label %135

122:                                              ; preds = %116
  %123 = load %"struct.Cache::head_t"*, %"struct.Cache::head_t"** %7, align 8
  %124 = getelementptr inbounds %"struct.Cache::head_t", %"struct.Cache::head_t"* %123, i32 0, i32 2
  %125 = load float*, float** %124, align 8
  %126 = load i32, i32* %5, align 4
  %127 = sext i32 %126 to i64
  %128 = getelementptr inbounds float, float* %125, i64 %127
  %129 = load %"struct.Cache::head_t"*, %"struct.Cache::head_t"** %7, align 8
  %130 = getelementptr inbounds %"struct.Cache::head_t", %"struct.Cache::head_t"* %129, i32 0, i32 2
  %131 = load float*, float** %130, align 8
  %132 = load i32, i32* %6, align 4
  %133 = sext i32 %132 to i64
  %134 = getelementptr inbounds float, float* %131, i64 %133
  call void @_ZL4swapIfEvRT_S1_(float* noundef nonnull align 4 dereferenceable(4) %128, float* noundef nonnull align 4 dereferenceable(4) %134)
  br label %152

135:                                              ; preds = %116
  %136 = load %"struct.Cache::head_t"*, %"struct.Cache::head_t"** %7, align 8
  call void @_ZN5Cache10lru_deleteEPNS_6head_tE(%class.Cache* noundef nonnull align 8 dereferenceable(56) %8, %"struct.Cache::head_t"* noundef %136)
  %137 = load %"struct.Cache::head_t"*, %"struct.Cache::head_t"** %7, align 8
  %138 = getelementptr inbounds %"struct.Cache::head_t", %"struct.Cache::head_t"* %137, i32 0, i32 2
  %139 = load float*, float** %138, align 8
  %140 = bitcast float* %139 to i8*
  call void @free(i8* noundef %140) #13
  %141 = load %"struct.Cache::head_t"*, %"struct.Cache::head_t"** %7, align 8
  %142 = getelementptr inbounds %"struct.Cache::head_t", %"struct.Cache::head_t"* %141, i32 0, i32 3
  %143 = load i32, i32* %142, align 8
  %144 = sext i32 %143 to i64
  %145 = getelementptr inbounds %class.Cache, %class.Cache* %8, i32 0, i32 1
  %146 = load i64, i64* %145, align 8
  %147 = add nsw i64 %146, %144
  store i64 %147, i64* %145, align 8
  %148 = load %"struct.Cache::head_t"*, %"struct.Cache::head_t"** %7, align 8
  %149 = getelementptr inbounds %"struct.Cache::head_t", %"struct.Cache::head_t"* %148, i32 0, i32 2
  store float* null, float** %149, align 8
  %150 = load %"struct.Cache::head_t"*, %"struct.Cache::head_t"** %7, align 8
  %151 = getelementptr inbounds %"struct.Cache::head_t", %"struct.Cache::head_t"* %150, i32 0, i32 3
  store i32 0, i32* %151, align 8
  br label %152

152:                                              ; preds = %135, %122
  br label %153

153:                                              ; preds = %152, %110
  br label %154

154:                                              ; preds = %153
  %155 = load %"struct.Cache::head_t"*, %"struct.Cache::head_t"** %7, align 8
  %156 = getelementptr inbounds %"struct.Cache::head_t", %"struct.Cache::head_t"* %155, i32 0, i32 1
  %157 = load %"struct.Cache::head_t"*, %"struct.Cache::head_t"** %156, align 8
  store %"struct.Cache::head_t"* %157, %"struct.Cache::head_t"** %7, align 8
  br label %106, !llvm.loop !7

158:                                              ; preds = %12, %106
  ret void
}

; Function Attrs: mustprogress noinline nounwind optnone uwtable
define internal void @_ZL4swapIPfEvRT_S2_(float** noundef nonnull align 8 dereferenceable(8) %0, float** noundef nonnull align 8 dereferenceable(8) %1) #2 {
  %3 = alloca float**, align 8
  %4 = alloca float**, align 8
  %5 = alloca float*, align 8
  store float** %0, float*** %3, align 8
  store float** %1, float*** %4, align 8
  %6 = load float**, float*** %3, align 8
  %7 = load float*, float** %6, align 8
  store float* %7, float** %5, align 8
  %8 = load float**, float*** %4, align 8
  %9 = load float*, float** %8, align 8
  %10 = load float**, float*** %3, align 8
  store float* %9, float** %10, align 8
  %11 = load float*, float** %5, align 8
  %12 = load float**, float*** %4, align 8
  store float* %11, float** %12, align 8
  ret void
}

; Function Attrs: mustprogress noinline nounwind optnone uwtable
define internal void @_ZL4swapIfEvRT_S1_(float* noundef nonnull align 4 dereferenceable(4) %0, float* noundef nonnull align 4 dereferenceable(4) %1) #2 {
  %3 = alloca float*, align 8
  %4 = alloca float*, align 8
  %5 = alloca float, align 4
  store float* %0, float** %3, align 8
  store float* %1, float** %4, align 8
  %6 = load float*, float** %3, align 8
  %7 = load float, float* %6, align 4
  store float %7, float* %5, align 4
  %8 = load float*, float** %4, align 8
  %9 = load float, float* %8, align 4
  %10 = load float*, float** %3, align 8
  store float %9, float* %10, align 4
  %11 = load float, float* %5, align 4
  %12 = load float*, float** %4, align 8
  store float %11, float* %12, align 4
  ret void
}

; Function Attrs: noinline optnone uwtable
define dso_local void @_ZN6KernelC2EiPKP8svm_nodeRK13svm_parameter(%class.Kernel* noundef nonnull align 8 dereferenceable(64) %0, i32 noundef %1, %struct.svm_node** noundef %2, %struct.svm_parameter* noundef nonnull align 8 dereferenceable(104) %3) unnamed_addr #0 align 2 personality i8* bitcast (i32 (...)* @__gxx_personality_v0 to i8*) {
  %5 = alloca %class.Kernel*, align 8
  %6 = alloca i32, align 4
  %7 = alloca %struct.svm_node**, align 8
  %8 = alloca %struct.svm_parameter*, align 8
  %9 = alloca i8*, align 8
  %10 = alloca i32, align 4
  %11 = alloca i32, align 4
  store %class.Kernel* %0, %class.Kernel** %5, align 8
  store i32 %1, i32* %6, align 4
  store %struct.svm_node** %2, %struct.svm_node*** %7, align 8
  store %struct.svm_parameter* %3, %struct.svm_parameter** %8, align 8
  %12 = load %class.Kernel*, %class.Kernel** %5, align 8
  %13 = bitcast %class.Kernel* %12 to %class.QMatrix*
  call void @_ZN7QMatrixC2Ev(%class.QMatrix* noundef nonnull align 8 dereferenceable(8) %13) #13
  %14 = bitcast %class.Kernel* %12 to i32 (...)***
  store i32 (...)** bitcast (i8** getelementptr inbounds ({ [7 x i8*] }, { [7 x i8*] }* @_ZTV6Kernel, i32 0, inrange i32 0, i32 2) to i32 (...)**), i32 (...)*** %14, align 8
  %15 = getelementptr inbounds %class.Kernel, %class.Kernel* %12, i32 0, i32 4
  %16 = load %struct.svm_parameter*, %struct.svm_parameter** %8, align 8
  %17 = getelementptr inbounds %struct.svm_parameter, %struct.svm_parameter* %16, i32 0, i32 1
  %18 = load i32, i32* %17, align 4
  store i32 %18, i32* %15, align 8
  %19 = getelementptr inbounds %class.Kernel, %class.Kernel* %12, i32 0, i32 5
  %20 = load %struct.svm_parameter*, %struct.svm_parameter** %8, align 8
  %21 = getelementptr inbounds %struct.svm_parameter, %struct.svm_parameter* %20, i32 0, i32 2
  %22 = load i32, i32* %21, align 8
  store i32 %22, i32* %19, align 4
  %23 = getelementptr inbounds %class.Kernel, %class.Kernel* %12, i32 0, i32 6
  %24 = load %struct.svm_parameter*, %struct.svm_parameter** %8, align 8
  %25 = getelementptr inbounds %struct.svm_parameter, %struct.svm_parameter* %24, i32 0, i32 3
  %26 = load double, double* %25, align 8
  store double %26, double* %23, align 8
  %27 = getelementptr inbounds %class.Kernel, %class.Kernel* %12, i32 0, i32 7
  %28 = load %struct.svm_parameter*, %struct.svm_parameter** %8, align 8
  %29 = getelementptr inbounds %struct.svm_parameter, %struct.svm_parameter* %28, i32 0, i32 4
  %30 = load double, double* %29, align 8
  store double %30, double* %27, align 8
  %31 = getelementptr inbounds %class.Kernel, %class.Kernel* %12, i32 0, i32 4
  %32 = load i32, i32* %31, align 8
  switch i32 %32, label %43 [
    i32 0, label %33
    i32 1, label %35
    i32 2, label %37
    i32 3, label %39
    i32 4, label %41
  ]

33:                                               ; preds = %4
  %34 = getelementptr inbounds %class.Kernel, %class.Kernel* %12, i32 0, i32 1
  store { i64, i64 } { i64 ptrtoint (double (%class.Kernel*, i32, i32)* @_ZNK6Kernel13kernel_linearEii to i64), i64 0 }, { i64, i64 }* %34, align 8
  br label %43

35:                                               ; preds = %4
  %36 = getelementptr inbounds %class.Kernel, %class.Kernel* %12, i32 0, i32 1
  store { i64, i64 } { i64 ptrtoint (double (%class.Kernel*, i32, i32)* @_ZNK6Kernel11kernel_polyEii to i64), i64 0 }, { i64, i64 }* %36, align 8
  br label %43

37:                                               ; preds = %4
  %38 = getelementptr inbounds %class.Kernel, %class.Kernel* %12, i32 0, i32 1
  store { i64, i64 } { i64 ptrtoint (double (%class.Kernel*, i32, i32)* @_ZNK6Kernel10kernel_rbfEii to i64), i64 0 }, { i64, i64 }* %38, align 8
  br label %43

39:                                               ; preds = %4
  %40 = getelementptr inbounds %class.Kernel, %class.Kernel* %12, i32 0, i32 1
  store { i64, i64 } { i64 ptrtoint (double (%class.Kernel*, i32, i32)* @_ZNK6Kernel14kernel_sigmoidEii to i64), i64 0 }, { i64, i64 }* %40, align 8
  br label %43

41:                                               ; preds = %4
  %42 = getelementptr inbounds %class.Kernel, %class.Kernel* %12, i32 0, i32 1
  store { i64, i64 } { i64 ptrtoint (double (%class.Kernel*, i32, i32)* @_ZNK6Kernel18kernel_precomputedEii to i64), i64 0 }, { i64, i64 }* %42, align 8
  br label %43

43:                                               ; preds = %4, %41, %39, %37, %35, %33
  %44 = getelementptr inbounds %class.Kernel, %class.Kernel* %12, i32 0, i32 2
  %45 = load %struct.svm_node**, %struct.svm_node*** %7, align 8
  %46 = load i32, i32* %6, align 4
  invoke void @_ZL5cloneIKP8svm_nodePKS0_EvRPT0_PT_i(%struct.svm_node*** noundef nonnull align 8 dereferenceable(8) %44, %struct.svm_node** noundef %45, i32 noundef %46)
          to label %47 unwind label %89

47:                                               ; preds = %43
  %48 = getelementptr inbounds %class.Kernel, %class.Kernel* %12, i32 0, i32 4
  %49 = load i32, i32* %48, align 8
  %50 = icmp eq i32 %49, 2
  br i1 %50, label %51, label %95

51:                                               ; preds = %47
  %52 = load i32, i32* %6, align 4
  %53 = sext i32 %52 to i64
  %54 = call { i64, i1 } @llvm.umul.with.overflow.i64(i64 %53, i64 8)
  %55 = extractvalue { i64, i1 } %54, 1
  %56 = extractvalue { i64, i1 } %54, 0
  %57 = select i1 %55, i64 -1, i64 %56
  %58 = invoke noalias noundef nonnull i8* @_Znam(i64 noundef %57) #14
          to label %59 unwind label %89

59:                                               ; preds = %51
  %60 = bitcast i8* %58 to double*
  %61 = getelementptr inbounds %class.Kernel, %class.Kernel* %12, i32 0, i32 3
  store double* %60, double** %61, align 8
  store i32 0, i32* %11, align 4
  br label %62

62:                                               ; preds = %86, %59
  %63 = load i32, i32* %11, align 4
  %64 = load i32, i32* %6, align 4
  %65 = icmp slt i32 %63, %64
  br i1 %65, label %66, label %94

66:                                               ; preds = %62
  %67 = getelementptr inbounds %class.Kernel, %class.Kernel* %12, i32 0, i32 2
  %68 = load %struct.svm_node**, %struct.svm_node*** %67, align 8
  %69 = load i32, i32* %11, align 4
  %70 = sext i32 %69 to i64
  %71 = getelementptr inbounds %struct.svm_node*, %struct.svm_node** %68, i64 %70
  %72 = load %struct.svm_node*, %struct.svm_node** %71, align 8
  %73 = getelementptr inbounds %class.Kernel, %class.Kernel* %12, i32 0, i32 2
  %74 = load %struct.svm_node**, %struct.svm_node*** %73, align 8
  %75 = load i32, i32* %11, align 4
  %76 = sext i32 %75 to i64
  %77 = getelementptr inbounds %struct.svm_node*, %struct.svm_node** %74, i64 %76
  %78 = load %struct.svm_node*, %struct.svm_node** %77, align 8
  %79 = invoke noundef double @_ZN6Kernel3dotEPK8svm_nodeS2_(%struct.svm_node* noundef %72, %struct.svm_node* noundef %78)
          to label %80 unwind label %89

80:                                               ; preds = %66
  %81 = getelementptr inbounds %class.Kernel, %class.Kernel* %12, i32 0, i32 3
  %82 = load double*, double** %81, align 8
  %83 = load i32, i32* %11, align 4
  %84 = sext i32 %83 to i64
  %85 = getelementptr inbounds double, double* %82, i64 %84
  store double %79, double* %85, align 8
  br label %86

86:                                               ; preds = %80
  %87 = load i32, i32* %11, align 4
  %88 = add nsw i32 %87, 1
  store i32 %88, i32* %11, align 4
  br label %62, !llvm.loop !8

89:                                               ; preds = %66, %51, %43
  %90 = landingpad { i8*, i32 }
          cleanup
  %91 = extractvalue { i8*, i32 } %90, 0
  store i8* %91, i8** %9, align 8
  %92 = extractvalue { i8*, i32 } %90, 1
  store i32 %92, i32* %10, align 4
  %93 = bitcast %class.Kernel* %12 to %class.QMatrix*
  call void @_ZN7QMatrixD2Ev(%class.QMatrix* noundef nonnull align 8 dereferenceable(8) %93) #13
  br label %98

94:                                               ; preds = %62
  br label %97

95:                                               ; preds = %47
  %96 = getelementptr inbounds %class.Kernel, %class.Kernel* %12, i32 0, i32 3
  store double* null, double** %96, align 8
  br label %97

97:                                               ; preds = %95, %94
  ret void

98:                                               ; preds = %89
  %99 = load i8*, i8** %9, align 8
  %100 = load i32, i32* %10, align 4
  %101 = insertvalue { i8*, i32 } undef, i8* %99, 0
  %102 = insertvalue { i8*, i32 } %101, i32 %100, 1
  resume { i8*, i32 } %102
}

; Function Attrs: noinline nounwind optnone uwtable
define linkonce_odr dso_local void @_ZN7QMatrixC2Ev(%class.QMatrix* noundef nonnull align 8 dereferenceable(8) %0) unnamed_addr #3 comdat align 2 {
  %2 = alloca %class.QMatrix*, align 8
  store %class.QMatrix* %0, %class.QMatrix** %2, align 8
  %3 = load %class.QMatrix*, %class.QMatrix** %2, align 8
  %4 = bitcast %class.QMatrix* %3 to i32 (...)***
  store i32 (...)** bitcast (i8** getelementptr inbounds ({ [7 x i8*] }, { [7 x i8*] }* @_ZTV7QMatrix, i32 0, inrange i32 0, i32 2) to i32 (...)**), i32 (...)*** %4, align 8
  ret void
}

; Function Attrs: mustprogress noinline nounwind optnone uwtable
define linkonce_odr dso_local noundef double @_ZNK6Kernel13kernel_linearEii(%class.Kernel* noundef nonnull align 8 dereferenceable(64) %0, i32 noundef %1, i32 noundef %2) #2 comdat align 2 {
  %4 = alloca %class.Kernel*, align 8
  %5 = alloca i32, align 4
  %6 = alloca i32, align 4
  store %class.Kernel* %0, %class.Kernel** %4, align 8
  store i32 %1, i32* %5, align 4
  store i32 %2, i32* %6, align 4
  %7 = load %class.Kernel*, %class.Kernel** %4, align 8
  %8 = getelementptr inbounds %class.Kernel, %class.Kernel* %7, i32 0, i32 2
  %9 = load %struct.svm_node**, %struct.svm_node*** %8, align 8
  %10 = load i32, i32* %5, align 4
  %11 = sext i32 %10 to i64
  %12 = getelementptr inbounds %struct.svm_node*, %struct.svm_node** %9, i64 %11
  %13 = load %struct.svm_node*, %struct.svm_node** %12, align 8
  %14 = getelementptr inbounds %class.Kernel, %class.Kernel* %7, i32 0, i32 2
  %15 = load %struct.svm_node**, %struct.svm_node*** %14, align 8
  %16 = load i32, i32* %6, align 4
  %17 = sext i32 %16 to i64
  %18 = getelementptr inbounds %struct.svm_node*, %struct.svm_node** %15, i64 %17
  %19 = load %struct.svm_node*, %struct.svm_node** %18, align 8
  %20 = call noundef double @_ZN6Kernel3dotEPK8svm_nodeS2_(%struct.svm_node* noundef %13, %struct.svm_node* noundef %19)
  ret double %20
}

; Function Attrs: mustprogress noinline optnone uwtable
define linkonce_odr dso_local noundef double @_ZNK6Kernel11kernel_polyEii(%class.Kernel* noundef nonnull align 8 dereferenceable(64) %0, i32 noundef %1, i32 noundef %2) #4 comdat align 2 {
  %4 = alloca %class.Kernel*, align 8
  %5 = alloca i32, align 4
  %6 = alloca i32, align 4
  store %class.Kernel* %0, %class.Kernel** %4, align 8
  store i32 %1, i32* %5, align 4
  store i32 %2, i32* %6, align 4
  %7 = load %class.Kernel*, %class.Kernel** %4, align 8
  %8 = getelementptr inbounds %class.Kernel, %class.Kernel* %7, i32 0, i32 6
  %9 = load double, double* %8, align 8
  %10 = getelementptr inbounds %class.Kernel, %class.Kernel* %7, i32 0, i32 2
  %11 = load %struct.svm_node**, %struct.svm_node*** %10, align 8
  %12 = load i32, i32* %5, align 4
  %13 = sext i32 %12 to i64
  %14 = getelementptr inbounds %struct.svm_node*, %struct.svm_node** %11, i64 %13
  %15 = load %struct.svm_node*, %struct.svm_node** %14, align 8
  %16 = getelementptr inbounds %class.Kernel, %class.Kernel* %7, i32 0, i32 2
  %17 = load %struct.svm_node**, %struct.svm_node*** %16, align 8
  %18 = load i32, i32* %6, align 4
  %19 = sext i32 %18 to i64
  %20 = getelementptr inbounds %struct.svm_node*, %struct.svm_node** %17, i64 %19
  %21 = load %struct.svm_node*, %struct.svm_node** %20, align 8
  %22 = call noundef double @_ZN6Kernel3dotEPK8svm_nodeS2_(%struct.svm_node* noundef %15, %struct.svm_node* noundef %21)
  %23 = getelementptr inbounds %class.Kernel, %class.Kernel* %7, i32 0, i32 7
  %24 = load double, double* %23, align 8
  %25 = call double @llvm.fmuladd.f64(double %9, double %22, double %24)
  %26 = getelementptr inbounds %class.Kernel, %class.Kernel* %7, i32 0, i32 5
  %27 = load i32, i32* %26, align 4
  %28 = call noundef double @_ZL4powidi(double noundef %25, i32 noundef %27)
  ret double %28
}

; Function Attrs: mustprogress noinline nounwind optnone uwtable
define linkonce_odr dso_local noundef double @_ZNK6Kernel10kernel_rbfEii(%class.Kernel* noundef nonnull align 8 dereferenceable(64) %0, i32 noundef %1, i32 noundef %2) #2 comdat align 2 {
  %4 = alloca %class.Kernel*, align 8
  %5 = alloca i32, align 4
  %6 = alloca i32, align 4
  store %class.Kernel* %0, %class.Kernel** %4, align 8
  store i32 %1, i32* %5, align 4
  store i32 %2, i32* %6, align 4
  %7 = load %class.Kernel*, %class.Kernel** %4, align 8
  %8 = getelementptr inbounds %class.Kernel, %class.Kernel* %7, i32 0, i32 6
  %9 = load double, double* %8, align 8
  %10 = fneg double %9
  %11 = getelementptr inbounds %class.Kernel, %class.Kernel* %7, i32 0, i32 3
  %12 = load double*, double** %11, align 8
  %13 = load i32, i32* %5, align 4
  %14 = sext i32 %13 to i64
  %15 = getelementptr inbounds double, double* %12, i64 %14
  %16 = load double, double* %15, align 8
  %17 = getelementptr inbounds %class.Kernel, %class.Kernel* %7, i32 0, i32 3
  %18 = load double*, double** %17, align 8
  %19 = load i32, i32* %6, align 4
  %20 = sext i32 %19 to i64
  %21 = getelementptr inbounds double, double* %18, i64 %20
  %22 = load double, double* %21, align 8
  %23 = fadd double %16, %22
  %24 = getelementptr inbounds %class.Kernel, %class.Kernel* %7, i32 0, i32 2
  %25 = load %struct.svm_node**, %struct.svm_node*** %24, align 8
  %26 = load i32, i32* %5, align 4
  %27 = sext i32 %26 to i64
  %28 = getelementptr inbounds %struct.svm_node*, %struct.svm_node** %25, i64 %27
  %29 = load %struct.svm_node*, %struct.svm_node** %28, align 8
  %30 = getelementptr inbounds %class.Kernel, %class.Kernel* %7, i32 0, i32 2
  %31 = load %struct.svm_node**, %struct.svm_node*** %30, align 8
  %32 = load i32, i32* %6, align 4
  %33 = sext i32 %32 to i64
  %34 = getelementptr inbounds %struct.svm_node*, %struct.svm_node** %31, i64 %33
  %35 = load %struct.svm_node*, %struct.svm_node** %34, align 8
  %36 = call noundef double @_ZN6Kernel3dotEPK8svm_nodeS2_(%struct.svm_node* noundef %29, %struct.svm_node* noundef %35)
  %37 = call double @llvm.fmuladd.f64(double -2.000000e+00, double %36, double %23)
  %38 = fmul double %10, %37
  %39 = call double @exp(double noundef %38) #13
  ret double %39
}

; Function Attrs: mustprogress noinline nounwind optnone uwtable
define linkonce_odr dso_local noundef double @_ZNK6Kernel14kernel_sigmoidEii(%class.Kernel* noundef nonnull align 8 dereferenceable(64) %0, i32 noundef %1, i32 noundef %2) #2 comdat align 2 {
  %4 = alloca %class.Kernel*, align 8
  %5 = alloca i32, align 4
  %6 = alloca i32, align 4
  store %class.Kernel* %0, %class.Kernel** %4, align 8
  store i32 %1, i32* %5, align 4
  store i32 %2, i32* %6, align 4
  %7 = load %class.Kernel*, %class.Kernel** %4, align 8
  %8 = getelementptr inbounds %class.Kernel, %class.Kernel* %7, i32 0, i32 6
  %9 = load double, double* %8, align 8
  %10 = getelementptr inbounds %class.Kernel, %class.Kernel* %7, i32 0, i32 2
  %11 = load %struct.svm_node**, %struct.svm_node*** %10, align 8
  %12 = load i32, i32* %5, align 4
  %13 = sext i32 %12 to i64
  %14 = getelementptr inbounds %struct.svm_node*, %struct.svm_node** %11, i64 %13
  %15 = load %struct.svm_node*, %struct.svm_node** %14, align 8
  %16 = getelementptr inbounds %class.Kernel, %class.Kernel* %7, i32 0, i32 2
  %17 = load %struct.svm_node**, %struct.svm_node*** %16, align 8
  %18 = load i32, i32* %6, align 4
  %19 = sext i32 %18 to i64
  %20 = getelementptr inbounds %struct.svm_node*, %struct.svm_node** %17, i64 %19
  %21 = load %struct.svm_node*, %struct.svm_node** %20, align 8
  %22 = call noundef double @_ZN6Kernel3dotEPK8svm_nodeS2_(%struct.svm_node* noundef %15, %struct.svm_node* noundef %21)
  %23 = getelementptr inbounds %class.Kernel, %class.Kernel* %7, i32 0, i32 7
  %24 = load double, double* %23, align 8
  %25 = call double @llvm.fmuladd.f64(double %9, double %22, double %24)
  %26 = call double @tanh(double noundef %25) #13
  ret double %26
}

; Function Attrs: mustprogress noinline nounwind optnone uwtable
define linkonce_odr dso_local noundef double @_ZNK6Kernel18kernel_precomputedEii(%class.Kernel* noundef nonnull align 8 dereferenceable(64) %0, i32 noundef %1, i32 noundef %2) #2 comdat align 2 {
  %4 = alloca %class.Kernel*, align 8
  %5 = alloca i32, align 4
  %6 = alloca i32, align 4
  store %class.Kernel* %0, %class.Kernel** %4, align 8
  store i32 %1, i32* %5, align 4
  store i32 %2, i32* %6, align 4
  %7 = load %class.Kernel*, %class.Kernel** %4, align 8
  %8 = getelementptr inbounds %class.Kernel, %class.Kernel* %7, i32 0, i32 2
  %9 = load %struct.svm_node**, %struct.svm_node*** %8, align 8
  %10 = load i32, i32* %5, align 4
  %11 = sext i32 %10 to i64
  %12 = getelementptr inbounds %struct.svm_node*, %struct.svm_node** %9, i64 %11
  %13 = load %struct.svm_node*, %struct.svm_node** %12, align 8
  %14 = getelementptr inbounds %class.Kernel, %class.Kernel* %7, i32 0, i32 2
  %15 = load %struct.svm_node**, %struct.svm_node*** %14, align 8
  %16 = load i32, i32* %6, align 4
  %17 = sext i32 %16 to i64
  %18 = getelementptr inbounds %struct.svm_node*, %struct.svm_node** %15, i64 %17
  %19 = load %struct.svm_node*, %struct.svm_node** %18, align 8
  %20 = getelementptr inbounds %struct.svm_node, %struct.svm_node* %19, i64 0
  %21 = getelementptr inbounds %struct.svm_node, %struct.svm_node* %20, i32 0, i32 1
  %22 = load double, double* %21, align 8
  %23 = fptosi double %22 to i32
  %24 = sext i32 %23 to i64
  %25 = getelementptr inbounds %struct.svm_node, %struct.svm_node* %13, i64 %24
  %26 = getelementptr inbounds %struct.svm_node, %struct.svm_node* %25, i32 0, i32 1
  %27 = load double, double* %26, align 8
  ret double %27
}

; Function Attrs: mustprogress noinline optnone uwtable
define internal void @_ZL5cloneIKP8svm_nodePKS0_EvRPT0_PT_i(%struct.svm_node*** noundef nonnull align 8 dereferenceable(8) %0, %struct.svm_node** noundef %1, i32 noundef %2) #4 {
  %4 = alloca %struct.svm_node***, align 8
  %5 = alloca %struct.svm_node**, align 8
  %6 = alloca i32, align 4
  store %struct.svm_node*** %0, %struct.svm_node**** %4, align 8
  store %struct.svm_node** %1, %struct.svm_node*** %5, align 8
  store i32 %2, i32* %6, align 4
  %7 = load i32, i32* %6, align 4
  %8 = sext i32 %7 to i64
  %9 = call { i64, i1 } @llvm.umul.with.overflow.i64(i64 %8, i64 8)
  %10 = extractvalue { i64, i1 } %9, 1
  %11 = extractvalue { i64, i1 } %9, 0
  %12 = select i1 %10, i64 -1, i64 %11
  %13 = call noalias noundef nonnull i8* @_Znam(i64 noundef %12) #14
  %14 = bitcast i8* %13 to %struct.svm_node**
  %15 = load %struct.svm_node***, %struct.svm_node**** %4, align 8
  store %struct.svm_node** %14, %struct.svm_node*** %15, align 8
  %16 = load %struct.svm_node***, %struct.svm_node**** %4, align 8
  %17 = load %struct.svm_node**, %struct.svm_node*** %16, align 8
  %18 = bitcast %struct.svm_node** %17 to i8*
  %19 = load %struct.svm_node**, %struct.svm_node*** %5, align 8
  %20 = bitcast %struct.svm_node** %19 to i8*
  %21 = load i32, i32* %6, align 4
  %22 = sext i32 %21 to i64
  %23 = mul i64 8, %22
  call void @llvm.memcpy.p0i8.p0i8.i64(i8* align 1 %18, i8* align 1 %20, i64 %23, i1 false)
  ret void
}

declare dso_local i32 @__gxx_personality_v0(...)

; Function Attrs: nofree nosync nounwind readnone speculatable willreturn
declare { i64, i1 } @llvm.umul.with.overflow.i64(i64, i64) #5

; Function Attrs: nobuiltin allocsize(0)
declare dso_local noundef nonnull i8* @_Znam(i64 noundef) #6

; Function Attrs: mustprogress noinline nounwind optnone uwtable
define dso_local noundef double @_ZN6Kernel3dotEPK8svm_nodeS2_(%struct.svm_node* noundef %0, %struct.svm_node* noundef %1) #2 align 2 {
  %3 = alloca %struct.svm_node*, align 8
  %4 = alloca %struct.svm_node*, align 8
  %5 = alloca double, align 8
  store %struct.svm_node* %0, %struct.svm_node** %3, align 8
  store %struct.svm_node* %1, %struct.svm_node** %4, align 8
  store double 0.000000e+00, double* %5, align 8
  br label %6

6:                                                ; preds = %54, %2
  %7 = load %struct.svm_node*, %struct.svm_node** %3, align 8
  %8 = getelementptr inbounds %struct.svm_node, %struct.svm_node* %7, i32 0, i32 0
  %9 = load i32, i32* %8, align 8
  %10 = icmp ne i32 %9, -1
  br i1 %10, label %11, label %16

11:                                               ; preds = %6
  %12 = load %struct.svm_node*, %struct.svm_node** %4, align 8
  %13 = getelementptr inbounds %struct.svm_node, %struct.svm_node* %12, i32 0, i32 0
  %14 = load i32, i32* %13, align 8
  %15 = icmp ne i32 %14, -1
  br label %16

16:                                               ; preds = %11, %6
  %17 = phi i1 [ false, %6 ], [ %15, %11 ]
  br i1 %17, label %18, label %55

18:                                               ; preds = %16
  %19 = load %struct.svm_node*, %struct.svm_node** %3, align 8
  %20 = getelementptr inbounds %struct.svm_node, %struct.svm_node* %19, i32 0, i32 0
  %21 = load i32, i32* %20, align 8
  %22 = load %struct.svm_node*, %struct.svm_node** %4, align 8
  %23 = getelementptr inbounds %struct.svm_node, %struct.svm_node* %22, i32 0, i32 0
  %24 = load i32, i32* %23, align 8
  %25 = icmp eq i32 %21, %24
  br i1 %25, label %26, label %39

26:                                               ; preds = %18
  %27 = load %struct.svm_node*, %struct.svm_node** %3, align 8
  %28 = getelementptr inbounds %struct.svm_node, %struct.svm_node* %27, i32 0, i32 1
  %29 = load double, double* %28, align 8
  %30 = load %struct.svm_node*, %struct.svm_node** %4, align 8
  %31 = getelementptr inbounds %struct.svm_node, %struct.svm_node* %30, i32 0, i32 1
  %32 = load double, double* %31, align 8
  %33 = load double, double* %5, align 8
  %34 = call double @llvm.fmuladd.f64(double %29, double %32, double %33)
  store double %34, double* %5, align 8
  %35 = load %struct.svm_node*, %struct.svm_node** %3, align 8
  %36 = getelementptr inbounds %struct.svm_node, %struct.svm_node* %35, i32 1
  store %struct.svm_node* %36, %struct.svm_node** %3, align 8
  %37 = load %struct.svm_node*, %struct.svm_node** %4, align 8
  %38 = getelementptr inbounds %struct.svm_node, %struct.svm_node* %37, i32 1
  store %struct.svm_node* %38, %struct.svm_node** %4, align 8
  br label %54

39:                                               ; preds = %18
  %40 = load %struct.svm_node*, %struct.svm_node** %3, align 8
  %41 = getelementptr inbounds %struct.svm_node, %struct.svm_node* %40, i32 0, i32 0
  %42 = load i32, i32* %41, align 8
  %43 = load %struct.svm_node*, %struct.svm_node** %4, align 8
  %44 = getelementptr inbounds %struct.svm_node, %struct.svm_node* %43, i32 0, i32 0
  %45 = load i32, i32* %44, align 8
  %46 = icmp sgt i32 %42, %45
  br i1 %46, label %47, label %50

47:                                               ; preds = %39
  %48 = load %struct.svm_node*, %struct.svm_node** %4, align 8
  %49 = getelementptr inbounds %struct.svm_node, %struct.svm_node* %48, i32 1
  store %struct.svm_node* %49, %struct.svm_node** %4, align 8
  br label %53

50:                                               ; preds = %39
  %51 = load %struct.svm_node*, %struct.svm_node** %3, align 8
  %52 = getelementptr inbounds %struct.svm_node, %struct.svm_node* %51, i32 1
  store %struct.svm_node* %52, %struct.svm_node** %3, align 8
  br label %53

53:                                               ; preds = %50, %47
  br label %54

54:                                               ; preds = %53, %26
  br label %6, !llvm.loop !9

55:                                               ; preds = %16
  %56 = load double, double* %5, align 8
  ret double %56
}

; Function Attrs: noinline nounwind optnone uwtable
define dso_local void @_ZN6KernelD2Ev(%class.Kernel* noundef nonnull align 8 dereferenceable(64) %0) unnamed_addr #3 align 2 {
  %2 = alloca %class.Kernel*, align 8
  store %class.Kernel* %0, %class.Kernel** %2, align 8
  %3 = load %class.Kernel*, %class.Kernel** %2, align 8
  %4 = bitcast %class.Kernel* %3 to i32 (...)***
  store i32 (...)** bitcast (i8** getelementptr inbounds ({ [7 x i8*] }, { [7 x i8*] }* @_ZTV6Kernel, i32 0, inrange i32 0, i32 2) to i32 (...)**), i32 (...)*** %4, align 8
  %5 = getelementptr inbounds %class.Kernel, %class.Kernel* %3, i32 0, i32 2
  %6 = load %struct.svm_node**, %struct.svm_node*** %5, align 8
  %7 = icmp eq %struct.svm_node** %6, null
  br i1 %7, label %10, label %8

8:                                                ; preds = %1
  %9 = bitcast %struct.svm_node** %6 to i8*
  call void @_ZdaPv(i8* noundef %9) #15
  br label %10

10:                                               ; preds = %8, %1
  %11 = getelementptr inbounds %class.Kernel, %class.Kernel* %3, i32 0, i32 3
  %12 = load double*, double** %11, align 8
  %13 = icmp eq double* %12, null
  br i1 %13, label %16, label %14

14:                                               ; preds = %10
  %15 = bitcast double* %12 to i8*
  call void @_ZdaPv(i8* noundef %15) #15
  br label %16

16:                                               ; preds = %14, %10
  %17 = bitcast %class.Kernel* %3 to %class.QMatrix*
  call void @_ZN7QMatrixD2Ev(%class.QMatrix* noundef nonnull align 8 dereferenceable(8) %17) #13
  ret void
}

; Function Attrs: nobuiltin nounwind
declare dso_local void @_ZdaPv(i8* noundef) #7

; Function Attrs: noinline nounwind optnone uwtable
define dso_local void @_ZN6KernelD0Ev(%class.Kernel* noundef nonnull align 8 dereferenceable(64) %0) unnamed_addr #3 align 2 {
  %2 = alloca %class.Kernel*, align 8
  store %class.Kernel* %0, %class.Kernel** %2, align 8
  %3 = load %class.Kernel*, %class.Kernel** %2, align 8
  call void @llvm.trap() #16
  unreachable
}

; Function Attrs: cold noreturn nounwind
declare void @llvm.trap() #8

; Function Attrs: nofree nosync nounwind readnone speculatable willreturn
declare double @llvm.fmuladd.f64(double, double, double) #5

; Function Attrs: mustprogress noinline optnone uwtable
define dso_local noundef double @_ZN6Kernel10k_functionEPK8svm_nodeS2_RK13svm_parameter(%struct.svm_node* noundef %0, %struct.svm_node* noundef %1, %struct.svm_parameter* noundef nonnull align 8 dereferenceable(104) %2) #4 align 2 {
  %4 = alloca double, align 8
  %5 = alloca %struct.svm_node*, align 8
  %6 = alloca %struct.svm_node*, align 8
  %7 = alloca %struct.svm_parameter*, align 8
  %8 = alloca double, align 8
  %9 = alloca double, align 8
  store %struct.svm_node* %0, %struct.svm_node** %5, align 8
  store %struct.svm_node* %1, %struct.svm_node** %6, align 8
  store %struct.svm_parameter* %2, %struct.svm_parameter** %7, align 8
  %10 = load %struct.svm_parameter*, %struct.svm_parameter** %7, align 8
  %11 = getelementptr inbounds %struct.svm_parameter, %struct.svm_parameter* %10, i32 0, i32 1
  %12 = load i32, i32* %11, align 4
  switch i32 %12, label %165 [
    i32 0, label %13
    i32 1, label %17
    i32 2, label %32
    i32 3, label %143
    i32 4, label %155
  ]

13:                                               ; preds = %3
  %14 = load %struct.svm_node*, %struct.svm_node** %5, align 8
  %15 = load %struct.svm_node*, %struct.svm_node** %6, align 8
  %16 = call noundef double @_ZN6Kernel3dotEPK8svm_nodeS2_(%struct.svm_node* noundef %14, %struct.svm_node* noundef %15)
  store double %16, double* %4, align 8
  br label %166

17:                                               ; preds = %3
  %18 = load %struct.svm_parameter*, %struct.svm_parameter** %7, align 8
  %19 = getelementptr inbounds %struct.svm_parameter, %struct.svm_parameter* %18, i32 0, i32 3
  %20 = load double, double* %19, align 8
  %21 = load %struct.svm_node*, %struct.svm_node** %5, align 8
  %22 = load %struct.svm_node*, %struct.svm_node** %6, align 8
  %23 = call noundef double @_ZN6Kernel3dotEPK8svm_nodeS2_(%struct.svm_node* noundef %21, %struct.svm_node* noundef %22)
  %24 = load %struct.svm_parameter*, %struct.svm_parameter** %7, align 8
  %25 = getelementptr inbounds %struct.svm_parameter, %struct.svm_parameter* %24, i32 0, i32 4
  %26 = load double, double* %25, align 8
  %27 = call double @llvm.fmuladd.f64(double %20, double %23, double %26)
  %28 = load %struct.svm_parameter*, %struct.svm_parameter** %7, align 8
  %29 = getelementptr inbounds %struct.svm_parameter, %struct.svm_parameter* %28, i32 0, i32 2
  %30 = load i32, i32* %29, align 8
  %31 = call noundef double @_ZL4powidi(double noundef %27, i32 noundef %30)
  store double %31, double* %4, align 8
  br label %166

32:                                               ; preds = %3
  store double 0.000000e+00, double* %8, align 8
  br label %33

33:                                               ; preds = %100, %32
  %34 = load %struct.svm_node*, %struct.svm_node** %5, align 8
  %35 = getelementptr inbounds %struct.svm_node, %struct.svm_node* %34, i32 0, i32 0
  %36 = load i32, i32* %35, align 8
  %37 = icmp ne i32 %36, -1
  br i1 %37, label %38, label %43

38:                                               ; preds = %33
  %39 = load %struct.svm_node*, %struct.svm_node** %6, align 8
  %40 = getelementptr inbounds %struct.svm_node, %struct.svm_node* %39, i32 0, i32 0
  %41 = load i32, i32* %40, align 8
  %42 = icmp ne i32 %41, -1
  br label %43

43:                                               ; preds = %38, %33
  %44 = phi i1 [ false, %33 ], [ %42, %38 ]
  br i1 %44, label %45, label %101

45:                                               ; preds = %43
  %46 = load %struct.svm_node*, %struct.svm_node** %5, align 8
  %47 = getelementptr inbounds %struct.svm_node, %struct.svm_node* %46, i32 0, i32 0
  %48 = load i32, i32* %47, align 8
  %49 = load %struct.svm_node*, %struct.svm_node** %6, align 8
  %50 = getelementptr inbounds %struct.svm_node, %struct.svm_node* %49, i32 0, i32 0
  %51 = load i32, i32* %50, align 8
  %52 = icmp eq i32 %48, %51
  br i1 %52, label %53, label %69

53:                                               ; preds = %45
  %54 = load %struct.svm_node*, %struct.svm_node** %5, align 8
  %55 = getelementptr inbounds %struct.svm_node, %struct.svm_node* %54, i32 0, i32 1
  %56 = load double, double* %55, align 8
  %57 = load %struct.svm_node*, %struct.svm_node** %6, align 8
  %58 = getelementptr inbounds %struct.svm_node, %struct.svm_node* %57, i32 0, i32 1
  %59 = load double, double* %58, align 8
  %60 = fsub double %56, %59
  store double %60, double* %9, align 8
  %61 = load double, double* %9, align 8
  %62 = load double, double* %9, align 8
  %63 = load double, double* %8, align 8
  %64 = call double @llvm.fmuladd.f64(double %61, double %62, double %63)
  store double %64, double* %8, align 8
  %65 = load %struct.svm_node*, %struct.svm_node** %5, align 8
  %66 = getelementptr inbounds %struct.svm_node, %struct.svm_node* %65, i32 1
  store %struct.svm_node* %66, %struct.svm_node** %5, align 8
  %67 = load %struct.svm_node*, %struct.svm_node** %6, align 8
  %68 = getelementptr inbounds %struct.svm_node, %struct.svm_node* %67, i32 1
  store %struct.svm_node* %68, %struct.svm_node** %6, align 8
  br label %100

69:                                               ; preds = %45
  %70 = load %struct.svm_node*, %struct.svm_node** %5, align 8
  %71 = getelementptr inbounds %struct.svm_node, %struct.svm_node* %70, i32 0, i32 0
  %72 = load i32, i32* %71, align 8
  %73 = load %struct.svm_node*, %struct.svm_node** %6, align 8
  %74 = getelementptr inbounds %struct.svm_node, %struct.svm_node* %73, i32 0, i32 0
  %75 = load i32, i32* %74, align 8
  %76 = icmp sgt i32 %72, %75
  br i1 %76, label %77, label %88

77:                                               ; preds = %69
  %78 = load %struct.svm_node*, %struct.svm_node** %6, align 8
  %79 = getelementptr inbounds %struct.svm_node, %struct.svm_node* %78, i32 0, i32 1
  %80 = load double, double* %79, align 8
  %81 = load %struct.svm_node*, %struct.svm_node** %6, align 8
  %82 = getelementptr inbounds %struct.svm_node, %struct.svm_node* %81, i32 0, i32 1
  %83 = load double, double* %82, align 8
  %84 = load double, double* %8, align 8
  %85 = call double @llvm.fmuladd.f64(double %80, double %83, double %84)
  store double %85, double* %8, align 8
  %86 = load %struct.svm_node*, %struct.svm_node** %6, align 8
  %87 = getelementptr inbounds %struct.svm_node, %struct.svm_node* %86, i32 1
  store %struct.svm_node* %87, %struct.svm_node** %6, align 8
  br label %99

88:                                               ; preds = %69
  %89 = load %struct.svm_node*, %struct.svm_node** %5, align 8
  %90 = getelementptr inbounds %struct.svm_node, %struct.svm_node* %89, i32 0, i32 1
  %91 = load double, double* %90, align 8
  %92 = load %struct.svm_node*, %struct.svm_node** %5, align 8
  %93 = getelementptr inbounds %struct.svm_node, %struct.svm_node* %92, i32 0, i32 1
  %94 = load double, double* %93, align 8
  %95 = load double, double* %8, align 8
  %96 = call double @llvm.fmuladd.f64(double %91, double %94, double %95)
  store double %96, double* %8, align 8
  %97 = load %struct.svm_node*, %struct.svm_node** %5, align 8
  %98 = getelementptr inbounds %struct.svm_node, %struct.svm_node* %97, i32 1
  store %struct.svm_node* %98, %struct.svm_node** %5, align 8
  br label %99

99:                                               ; preds = %88, %77
  br label %100

100:                                              ; preds = %99, %53
  br label %33, !llvm.loop !10

101:                                              ; preds = %43
  br label %102

102:                                              ; preds = %107, %101
  %103 = load %struct.svm_node*, %struct.svm_node** %5, align 8
  %104 = getelementptr inbounds %struct.svm_node, %struct.svm_node* %103, i32 0, i32 0
  %105 = load i32, i32* %104, align 8
  %106 = icmp ne i32 %105, -1
  br i1 %106, label %107, label %118

107:                                              ; preds = %102
  %108 = load %struct.svm_node*, %struct.svm_node** %5, align 8
  %109 = getelementptr inbounds %struct.svm_node, %struct.svm_node* %108, i32 0, i32 1
  %110 = load double, double* %109, align 8
  %111 = load %struct.svm_node*, %struct.svm_node** %5, align 8
  %112 = getelementptr inbounds %struct.svm_node, %struct.svm_node* %111, i32 0, i32 1
  %113 = load double, double* %112, align 8
  %114 = load double, double* %8, align 8
  %115 = call double @llvm.fmuladd.f64(double %110, double %113, double %114)
  store double %115, double* %8, align 8
  %116 = load %struct.svm_node*, %struct.svm_node** %5, align 8
  %117 = getelementptr inbounds %struct.svm_node, %struct.svm_node* %116, i32 1
  store %struct.svm_node* %117, %struct.svm_node** %5, align 8
  br label %102, !llvm.loop !11

118:                                              ; preds = %102
  br label %119

119:                                              ; preds = %124, %118
  %120 = load %struct.svm_node*, %struct.svm_node** %6, align 8
  %121 = getelementptr inbounds %struct.svm_node, %struct.svm_node* %120, i32 0, i32 0
  %122 = load i32, i32* %121, align 8
  %123 = icmp ne i32 %122, -1
  br i1 %123, label %124, label %135

124:                                              ; preds = %119
  %125 = load %struct.svm_node*, %struct.svm_node** %6, align 8
  %126 = getelementptr inbounds %struct.svm_node, %struct.svm_node* %125, i32 0, i32 1
  %127 = load double, double* %126, align 8
  %128 = load %struct.svm_node*, %struct.svm_node** %6, align 8
  %129 = getelementptr inbounds %struct.svm_node, %struct.svm_node* %128, i32 0, i32 1
  %130 = load double, double* %129, align 8
  %131 = load double, double* %8, align 8
  %132 = call double @llvm.fmuladd.f64(double %127, double %130, double %131)
  store double %132, double* %8, align 8
  %133 = load %struct.svm_node*, %struct.svm_node** %6, align 8
  %134 = getelementptr inbounds %struct.svm_node, %struct.svm_node* %133, i32 1
  store %struct.svm_node* %134, %struct.svm_node** %6, align 8
  br label %119, !llvm.loop !12

135:                                              ; preds = %119
  %136 = load %struct.svm_parameter*, %struct.svm_parameter** %7, align 8
  %137 = getelementptr inbounds %struct.svm_parameter, %struct.svm_parameter* %136, i32 0, i32 3
  %138 = load double, double* %137, align 8
  %139 = fneg double %138
  %140 = load double, double* %8, align 8
  %141 = fmul double %139, %140
  %142 = call double @exp(double noundef %141) #13
  store double %142, double* %4, align 8
  br label %166

143:                                              ; preds = %3
  %144 = load %struct.svm_parameter*, %struct.svm_parameter** %7, align 8
  %145 = getelementptr inbounds %struct.svm_parameter, %struct.svm_parameter* %144, i32 0, i32 3
  %146 = load double, double* %145, align 8
  %147 = load %struct.svm_node*, %struct.svm_node** %5, align 8
  %148 = load %struct.svm_node*, %struct.svm_node** %6, align 8
  %149 = call noundef double @_ZN6Kernel3dotEPK8svm_nodeS2_(%struct.svm_node* noundef %147, %struct.svm_node* noundef %148)
  %150 = load %struct.svm_parameter*, %struct.svm_parameter** %7, align 8
  %151 = getelementptr inbounds %struct.svm_parameter, %struct.svm_parameter* %150, i32 0, i32 4
  %152 = load double, double* %151, align 8
  %153 = call double @llvm.fmuladd.f64(double %146, double %149, double %152)
  %154 = call double @tanh(double noundef %153) #13
  store double %154, double* %4, align 8
  br label %166

155:                                              ; preds = %3
  %156 = load %struct.svm_node*, %struct.svm_node** %5, align 8
  %157 = load %struct.svm_node*, %struct.svm_node** %6, align 8
  %158 = getelementptr inbounds %struct.svm_node, %struct.svm_node* %157, i32 0, i32 1
  %159 = load double, double* %158, align 8
  %160 = fptosi double %159 to i32
  %161 = sext i32 %160 to i64
  %162 = getelementptr inbounds %struct.svm_node, %struct.svm_node* %156, i64 %161
  %163 = getelementptr inbounds %struct.svm_node, %struct.svm_node* %162, i32 0, i32 1
  %164 = load double, double* %163, align 8
  store double %164, double* %4, align 8
  br label %166

165:                                              ; preds = %3
  store double 0.000000e+00, double* %4, align 8
  br label %166

166:                                              ; preds = %165, %155, %143, %135, %17, %13
  %167 = load double, double* %4, align 8
  ret double %167
}

; Function Attrs: mustprogress noinline nounwind optnone uwtable
define internal noundef double @_ZL4powidi(double noundef %0, i32 noundef %1) #2 {
  %3 = alloca double, align 8
  %4 = alloca i32, align 4
  %5 = alloca double, align 8
  %6 = alloca double, align 8
  %7 = alloca i32, align 4
  store double %0, double* %3, align 8
  store i32 %1, i32* %4, align 4
  %8 = load double, double* %3, align 8
  store double %8, double* %5, align 8
  store double 1.000000e+00, double* %6, align 8
  %9 = load i32, i32* %4, align 4
  store i32 %9, i32* %7, align 4
  br label %10

10:                                               ; preds = %25, %2
  %11 = load i32, i32* %7, align 4
  %12 = icmp sgt i32 %11, 0
  br i1 %12, label %13, label %28

13:                                               ; preds = %10
  %14 = load i32, i32* %7, align 4
  %15 = srem i32 %14, 2
  %16 = icmp eq i32 %15, 1
  br i1 %16, label %17, label %21

17:                                               ; preds = %13
  %18 = load double, double* %5, align 8
  %19 = load double, double* %6, align 8
  %20 = fmul double %19, %18
  store double %20, double* %6, align 8
  br label %21

21:                                               ; preds = %17, %13
  %22 = load double, double* %5, align 8
  %23 = load double, double* %5, align 8
  %24 = fmul double %22, %23
  store double %24, double* %5, align 8
  br label %25

25:                                               ; preds = %21
  %26 = load i32, i32* %7, align 4
  %27 = sdiv i32 %26, 2
  store i32 %27, i32* %7, align 4
  br label %10, !llvm.loop !13

28:                                               ; preds = %10
  %29 = load double, double* %6, align 8
  ret double %29
}

; Function Attrs: nounwind
declare dso_local double @exp(double noundef) #1

; Function Attrs: nounwind
declare dso_local double @tanh(double noundef) #1

; Function Attrs: mustprogress noinline optnone uwtable
define dso_local void @_ZN6Solver10swap_indexEii(%class.Solver* noundef nonnull align 8 dereferenceable(117) %0, i32 noundef %1, i32 noundef %2) #4 align 2 {
  %4 = alloca %class.Solver*, align 8
  %5 = alloca i32, align 4
  %6 = alloca i32, align 4
  store %class.Solver* %0, %class.Solver** %4, align 8
  store i32 %1, i32* %5, align 4
  store i32 %2, i32* %6, align 4
  %7 = load %class.Solver*, %class.Solver** %4, align 8
  %8 = getelementptr inbounds %class.Solver, %class.Solver* %7, i32 0, i32 7
  %9 = load %class.QMatrix*, %class.QMatrix** %8, align 8
  %10 = load i32, i32* %5, align 4
  %11 = load i32, i32* %6, align 4
  %12 = bitcast %class.QMatrix* %9 to void (%class.QMatrix*, i32, i32)***
  %13 = load void (%class.QMatrix*, i32, i32)**, void (%class.QMatrix*, i32, i32)*** %12, align 8
  %14 = getelementptr inbounds void (%class.QMatrix*, i32, i32)*, void (%class.QMatrix*, i32, i32)** %13, i64 2
  %15 = load void (%class.QMatrix*, i32, i32)*, void (%class.QMatrix*, i32, i32)** %14, align 8
  call void %15(%class.QMatrix* noundef nonnull align 8 dereferenceable(8) %9, i32 noundef %10, i32 noundef %11)
  %16 = getelementptr inbounds %class.Solver, %class.Solver* %7, i32 0, i32 3
  %17 = load i8*, i8** %16, align 8
  %18 = load i32, i32* %5, align 4
  %19 = sext i32 %18 to i64
  %20 = getelementptr inbounds i8, i8* %17, i64 %19
  %21 = getelementptr inbounds %class.Solver, %class.Solver* %7, i32 0, i32 3
  %22 = load i8*, i8** %21, align 8
  %23 = load i32, i32* %6, align 4
  %24 = sext i32 %23 to i64
  %25 = getelementptr inbounds i8, i8* %22, i64 %24
  call void @_ZL4swapIaEvRT_S1_(i8* noundef nonnull align 1 dereferenceable(1) %20, i8* noundef nonnull align 1 dereferenceable(1) %25)
  %26 = getelementptr inbounds %class.Solver, %class.Solver* %7, i32 0, i32 4
  %27 = load double*, double** %26, align 8
  %28 = load i32, i32* %5, align 4
  %29 = sext i32 %28 to i64
  %30 = getelementptr inbounds double, double* %27, i64 %29
  %31 = getelementptr inbounds %class.Solver, %class.Solver* %7, i32 0, i32 4
  %32 = load double*, double** %31, align 8
  %33 = load i32, i32* %6, align 4
  %34 = sext i32 %33 to i64
  %35 = getelementptr inbounds double, double* %32, i64 %34
  call void @_ZL4swapIdEvRT_S1_(double* noundef nonnull align 8 dereferenceable(8) %30, double* noundef nonnull align 8 dereferenceable(8) %35)
  %36 = getelementptr inbounds %class.Solver, %class.Solver* %7, i32 0, i32 5
  %37 = load i8*, i8** %36, align 8
  %38 = load i32, i32* %5, align 4
  %39 = sext i32 %38 to i64
  %40 = getelementptr inbounds i8, i8* %37, i64 %39
  %41 = getelementptr inbounds %class.Solver, %class.Solver* %7, i32 0, i32 5
  %42 = load i8*, i8** %41, align 8
  %43 = load i32, i32* %6, align 4
  %44 = sext i32 %43 to i64
  %45 = getelementptr inbounds i8, i8* %42, i64 %44
  call void @_ZL4swapIcEvRT_S1_(i8* noundef nonnull align 1 dereferenceable(1) %40, i8* noundef nonnull align 1 dereferenceable(1) %45)
  %46 = getelementptr inbounds %class.Solver, %class.Solver* %7, i32 0, i32 6
  %47 = load double*, double** %46, align 8
  %48 = load i32, i32* %5, align 4
  %49 = sext i32 %48 to i64
  %50 = getelementptr inbounds double, double* %47, i64 %49
  %51 = getelementptr inbounds %class.Solver, %class.Solver* %7, i32 0, i32 6
  %52 = load double*, double** %51, align 8
  %53 = load i32, i32* %6, align 4
  %54 = sext i32 %53 to i64
  %55 = getelementptr inbounds double, double* %52, i64 %54
  call void @_ZL4swapIdEvRT_S1_(double* noundef nonnull align 8 dereferenceable(8) %50, double* noundef nonnull align 8 dereferenceable(8) %55)
  %56 = getelementptr inbounds %class.Solver, %class.Solver* %7, i32 0, i32 12
  %57 = load double*, double** %56, align 8
  %58 = load i32, i32* %5, align 4
  %59 = sext i32 %58 to i64
  %60 = getelementptr inbounds double, double* %57, i64 %59
  %61 = getelementptr inbounds %class.Solver, %class.Solver* %7, i32 0, i32 12
  %62 = load double*, double** %61, align 8
  %63 = load i32, i32* %6, align 4
  %64 = sext i32 %63 to i64
  %65 = getelementptr inbounds double, double* %62, i64 %64
  call void @_ZL4swapIdEvRT_S1_(double* noundef nonnull align 8 dereferenceable(8) %60, double* noundef nonnull align 8 dereferenceable(8) %65)
  %66 = getelementptr inbounds %class.Solver, %class.Solver* %7, i32 0, i32 13
  %67 = load i32*, i32** %66, align 8
  %68 = load i32, i32* %5, align 4
  %69 = sext i32 %68 to i64
  %70 = getelementptr inbounds i32, i32* %67, i64 %69
  %71 = getelementptr inbounds %class.Solver, %class.Solver* %7, i32 0, i32 13
  %72 = load i32*, i32** %71, align 8
  %73 = load i32, i32* %6, align 4
  %74 = sext i32 %73 to i64
  %75 = getelementptr inbounds i32, i32* %72, i64 %74
  call void @_ZL4swapIiEvRT_S1_(i32* noundef nonnull align 4 dereferenceable(4) %70, i32* noundef nonnull align 4 dereferenceable(4) %75)
  %76 = getelementptr inbounds %class.Solver, %class.Solver* %7, i32 0, i32 14
  %77 = load double*, double** %76, align 8
  %78 = load i32, i32* %5, align 4
  %79 = sext i32 %78 to i64
  %80 = getelementptr inbounds double, double* %77, i64 %79
  %81 = getelementptr inbounds %class.Solver, %class.Solver* %7, i32 0, i32 14
  %82 = load double*, double** %81, align 8
  %83 = load i32, i32* %6, align 4
  %84 = sext i32 %83 to i64
  %85 = getelementptr inbounds double, double* %82, i64 %84
  call void @_ZL4swapIdEvRT_S1_(double* noundef nonnull align 8 dereferenceable(8) %80, double* noundef nonnull align 8 dereferenceable(8) %85)
  ret void
}

; Function Attrs: mustprogress noinline nounwind optnone uwtable
define internal void @_ZL4swapIaEvRT_S1_(i8* noundef nonnull align 1 dereferenceable(1) %0, i8* noundef nonnull align 1 dereferenceable(1) %1) #2 {
  %3 = alloca i8*, align 8
  %4 = alloca i8*, align 8
  %5 = alloca i8, align 1
  store i8* %0, i8** %3, align 8
  store i8* %1, i8** %4, align 8
  %6 = load i8*, i8** %3, align 8
  %7 = load i8, i8* %6, align 1
  store i8 %7, i8* %5, align 1
  %8 = load i8*, i8** %4, align 8
  %9 = load i8, i8* %8, align 1
  %10 = load i8*, i8** %3, align 8
  store i8 %9, i8* %10, align 1
  %11 = load i8, i8* %5, align 1
  %12 = load i8*, i8** %4, align 8
  store i8 %11, i8* %12, align 1
  ret void
}

; Function Attrs: mustprogress noinline nounwind optnone uwtable
define internal void @_ZL4swapIdEvRT_S1_(double* noundef nonnull align 8 dereferenceable(8) %0, double* noundef nonnull align 8 dereferenceable(8) %1) #2 {
  %3 = alloca double*, align 8
  %4 = alloca double*, align 8
  %5 = alloca double, align 8
  store double* %0, double** %3, align 8
  store double* %1, double** %4, align 8
  %6 = load double*, double** %3, align 8
  %7 = load double, double* %6, align 8
  store double %7, double* %5, align 8
  %8 = load double*, double** %4, align 8
  %9 = load double, double* %8, align 8
  %10 = load double*, double** %3, align 8
  store double %9, double* %10, align 8
  %11 = load double, double* %5, align 8
  %12 = load double*, double** %4, align 8
  store double %11, double* %12, align 8
  ret void
}

; Function Attrs: mustprogress noinline nounwind optnone uwtable
define internal void @_ZL4swapIcEvRT_S1_(i8* noundef nonnull align 1 dereferenceable(1) %0, i8* noundef nonnull align 1 dereferenceable(1) %1) #2 {
  %3 = alloca i8*, align 8
  %4 = alloca i8*, align 8
  %5 = alloca i8, align 1
  store i8* %0, i8** %3, align 8
  store i8* %1, i8** %4, align 8
  %6 = load i8*, i8** %3, align 8
  %7 = load i8, i8* %6, align 1
  store i8 %7, i8* %5, align 1
  %8 = load i8*, i8** %4, align 8
  %9 = load i8, i8* %8, align 1
  %10 = load i8*, i8** %3, align 8
  store i8 %9, i8* %10, align 1
  %11 = load i8, i8* %5, align 1
  %12 = load i8*, i8** %4, align 8
  store i8 %11, i8* %12, align 1
  ret void
}

; Function Attrs: mustprogress noinline optnone uwtable
define dso_local void @_ZN6Solver20reconstruct_gradientEv(%class.Solver* noundef nonnull align 8 dereferenceable(117) %0) #4 align 2 {
  %2 = alloca %class.Solver*, align 8
  %3 = alloca i32, align 4
  %4 = alloca i32, align 4
  %5 = alloca i32, align 4
  %6 = alloca float*, align 8
  %7 = alloca float*, align 8
  %8 = alloca double, align 8
  store %class.Solver* %0, %class.Solver** %2, align 8
  %9 = load %class.Solver*, %class.Solver** %2, align 8
  %10 = getelementptr inbounds %class.Solver, %class.Solver* %9, i32 0, i32 1
  %11 = load i32, i32* %10, align 8
  %12 = getelementptr inbounds %class.Solver, %class.Solver* %9, i32 0, i32 15
  %13 = load i32, i32* %12, align 8
  %14 = icmp eq i32 %11, %13
  br i1 %14, label %15, label %16

15:                                               ; preds = %1
  br label %197

16:                                               ; preds = %1
  store i32 0, i32* %5, align 4
  %17 = getelementptr inbounds %class.Solver, %class.Solver* %9, i32 0, i32 1
  %18 = load i32, i32* %17, align 8
  store i32 %18, i32* %4, align 4
  br label %19

19:                                               ; preds = %43, %16
  %20 = load i32, i32* %4, align 4
  %21 = getelementptr inbounds %class.Solver, %class.Solver* %9, i32 0, i32 15
  %22 = load i32, i32* %21, align 8
  %23 = icmp slt i32 %20, %22
  br i1 %23, label %24, label %46

24:                                               ; preds = %19
  %25 = getelementptr inbounds %class.Solver, %class.Solver* %9, i32 0, i32 14
  %26 = load double*, double** %25, align 8
  %27 = load i32, i32* %4, align 4
  %28 = sext i32 %27 to i64
  %29 = getelementptr inbounds double, double* %26, i64 %28
  %30 = load double, double* %29, align 8
  %31 = getelementptr inbounds %class.Solver, %class.Solver* %9, i32 0, i32 12
  %32 = load double*, double** %31, align 8
  %33 = load i32, i32* %4, align 4
  %34 = sext i32 %33 to i64
  %35 = getelementptr inbounds double, double* %32, i64 %34
  %36 = load double, double* %35, align 8
  %37 = fadd double %30, %36
  %38 = getelementptr inbounds %class.Solver, %class.Solver* %9, i32 0, i32 4
  %39 = load double*, double** %38, align 8
  %40 = load i32, i32* %4, align 4
  %41 = sext i32 %40 to i64
  %42 = getelementptr inbounds double, double* %39, i64 %41
  store double %37, double* %42, align 8
  br label %43

43:                                               ; preds = %24
  %44 = load i32, i32* %4, align 4
  %45 = add nsw i32 %44, 1
  store i32 %45, i32* %4, align 4
  br label %19, !llvm.loop !14

46:                                               ; preds = %19
  store i32 0, i32* %4, align 4
  br label %47

47:                                               ; preds = %59, %46
  %48 = load i32, i32* %4, align 4
  %49 = getelementptr inbounds %class.Solver, %class.Solver* %9, i32 0, i32 1
  %50 = load i32, i32* %49, align 8
  %51 = icmp slt i32 %48, %50
  br i1 %51, label %52, label %62

52:                                               ; preds = %47
  %53 = load i32, i32* %4, align 4
  %54 = call noundef zeroext i1 @_ZN6Solver7is_freeEi(%class.Solver* noundef nonnull align 8 dereferenceable(117) %9, i32 noundef %53)
  br i1 %54, label %55, label %58

55:                                               ; preds = %52
  %56 = load i32, i32* %5, align 4
  %57 = add nsw i32 %56, 1
  store i32 %57, i32* %5, align 4
  br label %58

58:                                               ; preds = %55, %52
  br label %59

59:                                               ; preds = %58
  %60 = load i32, i32* %4, align 4
  %61 = add nsw i32 %60, 1
  store i32 %61, i32* %4, align 4
  br label %47, !llvm.loop !15

62:                                               ; preds = %47
  %63 = load i32, i32* %5, align 4
  %64 = mul nsw i32 2, %63
  %65 = getelementptr inbounds %class.Solver, %class.Solver* %9, i32 0, i32 1
  %66 = load i32, i32* %65, align 8
  %67 = icmp slt i32 %64, %66
  br i1 %67, label %68, label %69

68:                                               ; preds = %62
  call void (i8*, ...) @_ZL4infoPKcz(i8* noundef getelementptr inbounds ([36 x i8], [36 x i8]* @.str, i64 0, i64 0))
  br label %69

69:                                               ; preds = %68, %62
  %70 = load i32, i32* %5, align 4
  %71 = getelementptr inbounds %class.Solver, %class.Solver* %9, i32 0, i32 15
  %72 = load i32, i32* %71, align 8
  %73 = mul nsw i32 %70, %72
  %74 = getelementptr inbounds %class.Solver, %class.Solver* %9, i32 0, i32 1
  %75 = load i32, i32* %74, align 8
  %76 = mul nsw i32 2, %75
  %77 = getelementptr inbounds %class.Solver, %class.Solver* %9, i32 0, i32 15
  %78 = load i32, i32* %77, align 8
  %79 = getelementptr inbounds %class.Solver, %class.Solver* %9, i32 0, i32 1
  %80 = load i32, i32* %79, align 8
  %81 = sub nsw i32 %78, %80
  %82 = mul nsw i32 %76, %81
  %83 = icmp sgt i32 %73, %82
  br i1 %83, label %84, label %140

84:                                               ; preds = %69
  %85 = getelementptr inbounds %class.Solver, %class.Solver* %9, i32 0, i32 1
  %86 = load i32, i32* %85, align 8
  store i32 %86, i32* %3, align 4
  br label %87

87:                                               ; preds = %136, %84
  %88 = load i32, i32* %3, align 4
  %89 = getelementptr inbounds %class.Solver, %class.Solver* %9, i32 0, i32 15
  %90 = load i32, i32* %89, align 8
  %91 = icmp slt i32 %88, %90
  br i1 %91, label %92, label %139

92:                                               ; preds = %87
  %93 = getelementptr inbounds %class.Solver, %class.Solver* %9, i32 0, i32 7
  %94 = load %class.QMatrix*, %class.QMatrix** %93, align 8
  %95 = load i32, i32* %3, align 4
  %96 = getelementptr inbounds %class.Solver, %class.Solver* %9, i32 0, i32 1
  %97 = load i32, i32* %96, align 8
  %98 = bitcast %class.QMatrix* %94 to float* (%class.QMatrix*, i32, i32)***
  %99 = load float* (%class.QMatrix*, i32, i32)**, float* (%class.QMatrix*, i32, i32)*** %98, align 8
  %100 = getelementptr inbounds float* (%class.QMatrix*, i32, i32)*, float* (%class.QMatrix*, i32, i32)** %99, i64 0
  %101 = load float* (%class.QMatrix*, i32, i32)*, float* (%class.QMatrix*, i32, i32)** %100, align 8
  %102 = call noundef float* %101(%class.QMatrix* noundef nonnull align 8 dereferenceable(8) %94, i32 noundef %95, i32 noundef %97)
  store float* %102, float** %6, align 8
  store i32 0, i32* %4, align 4
  br label %103

103:                                              ; preds = %132, %92
  %104 = load i32, i32* %4, align 4
  %105 = getelementptr inbounds %class.Solver, %class.Solver* %9, i32 0, i32 1
  %106 = load i32, i32* %105, align 8
  %107 = icmp slt i32 %104, %106
  br i1 %107, label %108, label %135

108:                                              ; preds = %103
  %109 = load i32, i32* %4, align 4
  %110 = call noundef zeroext i1 @_ZN6Solver7is_freeEi(%class.Solver* noundef nonnull align 8 dereferenceable(117) %9, i32 noundef %109)
  br i1 %110, label %111, label %131

111:                                              ; preds = %108
  %112 = getelementptr inbounds %class.Solver, %class.Solver* %9, i32 0, i32 6
  %113 = load double*, double** %112, align 8
  %114 = load i32, i32* %4, align 4
  %115 = sext i32 %114 to i64
  %116 = getelementptr inbounds double, double* %113, i64 %115
  %117 = load double, double* %116, align 8
  %118 = load float*, float** %6, align 8
  %119 = load i32, i32* %4, align 4
  %120 = sext i32 %119 to i64
  %121 = getelementptr inbounds float, float* %118, i64 %120
  %122 = load float, float* %121, align 4
  %123 = fpext float %122 to double
  %124 = getelementptr inbounds %class.Solver, %class.Solver* %9, i32 0, i32 4
  %125 = load double*, double** %124, align 8
  %126 = load i32, i32* %3, align 4
  %127 = sext i32 %126 to i64
  %128 = getelementptr inbounds double, double* %125, i64 %127
  %129 = load double, double* %128, align 8
  %130 = call double @llvm.fmuladd.f64(double %117, double %123, double %129)
  store double %130, double* %128, align 8
  br label %131

131:                                              ; preds = %111, %108
  br label %132

132:                                              ; preds = %131
  %133 = load i32, i32* %4, align 4
  %134 = add nsw i32 %133, 1
  store i32 %134, i32* %4, align 4
  br label %103, !llvm.loop !16

135:                                              ; preds = %103
  br label %136

136:                                              ; preds = %135
  %137 = load i32, i32* %3, align 4
  %138 = add nsw i32 %137, 1
  store i32 %138, i32* %3, align 4
  br label %87, !llvm.loop !17

139:                                              ; preds = %87
  br label %197

140:                                              ; preds = %69
  store i32 0, i32* %3, align 4
  br label %141

141:                                              ; preds = %193, %140
  %142 = load i32, i32* %3, align 4
  %143 = getelementptr inbounds %class.Solver, %class.Solver* %9, i32 0, i32 1
  %144 = load i32, i32* %143, align 8
  %145 = icmp slt i32 %142, %144
  br i1 %145, label %146, label %196

146:                                              ; preds = %141
  %147 = load i32, i32* %3, align 4
  %148 = call noundef zeroext i1 @_ZN6Solver7is_freeEi(%class.Solver* noundef nonnull align 8 dereferenceable(117) %9, i32 noundef %147)
  br i1 %148, label %149, label %192

149:                                              ; preds = %146
  %150 = getelementptr inbounds %class.Solver, %class.Solver* %9, i32 0, i32 7
  %151 = load %class.QMatrix*, %class.QMatrix** %150, align 8
  %152 = load i32, i32* %3, align 4
  %153 = getelementptr inbounds %class.Solver, %class.Solver* %9, i32 0, i32 15
  %154 = load i32, i32* %153, align 8
  %155 = bitcast %class.QMatrix* %151 to float* (%class.QMatrix*, i32, i32)***
  %156 = load float* (%class.QMatrix*, i32, i32)**, float* (%class.QMatrix*, i32, i32)*** %155, align 8
  %157 = getelementptr inbounds float* (%class.QMatrix*, i32, i32)*, float* (%class.QMatrix*, i32, i32)** %156, i64 0
  %158 = load float* (%class.QMatrix*, i32, i32)*, float* (%class.QMatrix*, i32, i32)** %157, align 8
  %159 = call noundef float* %158(%class.QMatrix* noundef nonnull align 8 dereferenceable(8) %151, i32 noundef %152, i32 noundef %154)
  store float* %159, float** %7, align 8
  %160 = getelementptr inbounds %class.Solver, %class.Solver* %9, i32 0, i32 6
  %161 = load double*, double** %160, align 8
  %162 = load i32, i32* %3, align 4
  %163 = sext i32 %162 to i64
  %164 = getelementptr inbounds double, double* %161, i64 %163
  %165 = load double, double* %164, align 8
  store double %165, double* %8, align 8
  %166 = getelementptr inbounds %class.Solver, %class.Solver* %9, i32 0, i32 1
  %167 = load i32, i32* %166, align 8
  store i32 %167, i32* %4, align 4
  br label %168

168:                                              ; preds = %188, %149
  %169 = load i32, i32* %4, align 4
  %170 = getelementptr inbounds %class.Solver, %class.Solver* %9, i32 0, i32 15
  %171 = load i32, i32* %170, align 8
  %172 = icmp slt i32 %169, %171
  br i1 %172, label %173, label %191

173:                                              ; preds = %168
  %174 = load double, double* %8, align 8
  %175 = load float*, float** %7, align 8
  %176 = load i32, i32* %4, align 4
  %177 = sext i32 %176 to i64
  %178 = getelementptr inbounds float, float* %175, i64 %177
  %179 = load float, float* %178, align 4
  %180 = fpext float %179 to double
  %181 = getelementptr inbounds %class.Solver, %class.Solver* %9, i32 0, i32 4
  %182 = load double*, double** %181, align 8
  %183 = load i32, i32* %4, align 4
  %184 = sext i32 %183 to i64
  %185 = getelementptr inbounds double, double* %182, i64 %184
  %186 = load double, double* %185, align 8
  %187 = call double @llvm.fmuladd.f64(double %174, double %180, double %186)
  store double %187, double* %185, align 8
  br label %188

188:                                              ; preds = %173
  %189 = load i32, i32* %4, align 4
  %190 = add nsw i32 %189, 1
  store i32 %190, i32* %4, align 4
  br label %168, !llvm.loop !18

191:                                              ; preds = %168
  br label %192

192:                                              ; preds = %191, %146
  br label %193

193:                                              ; preds = %192
  %194 = load i32, i32* %3, align 4
  %195 = add nsw i32 %194, 1
  store i32 %195, i32* %3, align 4
  br label %141, !llvm.loop !19

196:                                              ; preds = %141
  br label %197

197:                                              ; preds = %15, %196, %139
  ret void
}

; Function Attrs: mustprogress noinline nounwind optnone uwtable
define linkonce_odr dso_local noundef zeroext i1 @_ZN6Solver7is_freeEi(%class.Solver* noundef nonnull align 8 dereferenceable(117) %0, i32 noundef %1) #2 comdat align 2 {
  %3 = alloca %class.Solver*, align 8
  %4 = alloca i32, align 4
  store %class.Solver* %0, %class.Solver** %3, align 8
  store i32 %1, i32* %4, align 4
  %5 = load %class.Solver*, %class.Solver** %3, align 8
  %6 = getelementptr inbounds %class.Solver, %class.Solver* %5, i32 0, i32 5
  %7 = load i8*, i8** %6, align 8
  %8 = load i32, i32* %4, align 4
  %9 = sext i32 %8 to i64
  %10 = getelementptr inbounds i8, i8* %7, i64 %9
  %11 = load i8, i8* %10, align 1
  %12 = sext i8 %11 to i32
  %13 = icmp eq i32 %12, 2
  ret i1 %13
}

; Function Attrs: mustprogress noinline optnone uwtable
define internal void @_ZL4infoPKcz(i8* noundef %0, ...) #4 {
  %2 = alloca i8*, align 8
  %3 = alloca [8192 x i8], align 16
  %4 = alloca [1 x %struct.__va_list_tag], align 16
  store i8* %0, i8** %2, align 8
  %5 = getelementptr inbounds [1 x %struct.__va_list_tag], [1 x %struct.__va_list_tag]* %4, i64 0, i64 0
  %6 = bitcast %struct.__va_list_tag* %5 to i8*
  call void @llvm.va_start(i8* %6)
  %7 = getelementptr inbounds [8192 x i8], [8192 x i8]* %3, i64 0, i64 0
  %8 = load i8*, i8** %2, align 8
  %9 = getelementptr inbounds [1 x %struct.__va_list_tag], [1 x %struct.__va_list_tag]* %4, i64 0, i64 0
  %10 = call i32 @vsprintf(i8* noundef %7, i8* noundef %8, %struct.__va_list_tag* noundef %9) #13
  %11 = getelementptr inbounds [1 x %struct.__va_list_tag], [1 x %struct.__va_list_tag]* %4, i64 0, i64 0
  %12 = bitcast %struct.__va_list_tag* %11 to i8*
  call void @llvm.va_end(i8* %12)
  %13 = load void (i8*)*, void (i8*)** @_ZL16svm_print_string, align 8
  %14 = getelementptr inbounds [8192 x i8], [8192 x i8]* %3, i64 0, i64 0
  call void %13(i8* noundef %14)
  ret void
}

; Function Attrs: mustprogress noinline optnone uwtable
define dso_local void @_ZN6Solver5SolveEiRK7QMatrixPKdPKaPddddPNS_12SolutionInfoEi(%class.Solver* noundef nonnull align 8 dereferenceable(117) %0, i32 noundef %1, %class.QMatrix* noundef nonnull align 8 dereferenceable(8) %2, double* noundef %3, i8* noundef %4, double* noundef %5, double noundef %6, double noundef %7, double noundef %8, %"struct.Solver::SolutionInfo"* noundef %9, i32 noundef %10) #4 align 2 {
  %12 = alloca %class.Solver*, align 8
  %13 = alloca i32, align 4
  %14 = alloca %class.QMatrix*, align 8
  %15 = alloca double*, align 8
  %16 = alloca i8*, align 8
  %17 = alloca double*, align 8
  %18 = alloca double, align 8
  %19 = alloca double, align 8
  %20 = alloca double, align 8
  %21 = alloca %"struct.Solver::SolutionInfo"*, align 8
  %22 = alloca i32, align 4
  %23 = alloca i32, align 4
  %24 = alloca i32, align 4
  %25 = alloca i32, align 4
  %26 = alloca float*, align 8
  %27 = alloca double, align 8
  %28 = alloca i32, align 4
  %29 = alloca i32, align 4
  %30 = alloca i32, align 4
  %31 = alloca i32, align 4
  %32 = alloca i32, align 4
  %33 = alloca i32, align 4
  %34 = alloca float*, align 8
  %35 = alloca float*, align 8
  %36 = alloca double, align 8
  %37 = alloca double, align 8
  %38 = alloca double, align 8
  %39 = alloca double, align 8
  %40 = alloca double, align 8
  %41 = alloca double, align 8
  %42 = alloca double, align 8
  %43 = alloca double, align 8
  %44 = alloca double, align 8
  %45 = alloca double, align 8
  %46 = alloca double, align 8
  %47 = alloca double, align 8
  %48 = alloca i32, align 4
  %49 = alloca i8, align 1
  %50 = alloca i8, align 1
  %51 = alloca i32, align 4
  %52 = alloca double, align 8
  %53 = alloca i32, align 4
  %54 = alloca i32, align 4
  store %class.Solver* %0, %class.Solver** %12, align 8
  store i32 %1, i32* %13, align 4
  store %class.QMatrix* %2, %class.QMatrix** %14, align 8
  store double* %3, double** %15, align 8
  store i8* %4, i8** %16, align 8
  store double* %5, double** %17, align 8
  store double %6, double* %18, align 8
  store double %7, double* %19, align 8
  store double %8, double* %20, align 8
  store %"struct.Solver::SolutionInfo"* %9, %"struct.Solver::SolutionInfo"** %21, align 8
  store i32 %10, i32* %22, align 4
  %55 = load %class.Solver*, %class.Solver** %12, align 8
  %56 = load i32, i32* %13, align 4
  %57 = getelementptr inbounds %class.Solver, %class.Solver* %55, i32 0, i32 15
  store i32 %56, i32* %57, align 8
  %58 = load %class.QMatrix*, %class.QMatrix** %14, align 8
  %59 = getelementptr inbounds %class.Solver, %class.Solver* %55, i32 0, i32 7
  store %class.QMatrix* %58, %class.QMatrix** %59, align 8
  %60 = load %class.QMatrix*, %class.QMatrix** %14, align 8
  %61 = bitcast %class.QMatrix* %60 to double* (%class.QMatrix*)***
  %62 = load double* (%class.QMatrix*)**, double* (%class.QMatrix*)*** %61, align 8
  %63 = getelementptr inbounds double* (%class.QMatrix*)*, double* (%class.QMatrix*)** %62, i64 1
  %64 = load double* (%class.QMatrix*)*, double* (%class.QMatrix*)** %63, align 8
  %65 = call noundef double* %64(%class.QMatrix* noundef nonnull align 8 dereferenceable(8) %60)
  %66 = getelementptr inbounds %class.Solver, %class.Solver* %55, i32 0, i32 8
  store double* %65, double** %66, align 8
  %67 = getelementptr inbounds %class.Solver, %class.Solver* %55, i32 0, i32 12
  %68 = load double*, double** %15, align 8
  %69 = load i32, i32* %13, align 4
  call void @_ZL5cloneIKddEvRPT0_PT_i(double** noundef nonnull align 8 dereferenceable(8) %67, double* noundef %68, i32 noundef %69)
  %70 = getelementptr inbounds %class.Solver, %class.Solver* %55, i32 0, i32 3
  %71 = load i8*, i8** %16, align 8
  %72 = load i32, i32* %13, align 4
  call void @_ZL5cloneIKaaEvRPT0_PT_i(i8** noundef nonnull align 8 dereferenceable(8) %70, i8* noundef %71, i32 noundef %72)
  %73 = getelementptr inbounds %class.Solver, %class.Solver* %55, i32 0, i32 6
  %74 = load double*, double** %17, align 8
  %75 = load i32, i32* %13, align 4
  call void @_ZL5cloneIddEvRPT0_PT_i(double** noundef nonnull align 8 dereferenceable(8) %73, double* noundef %74, i32 noundef %75)
  %76 = load double, double* %18, align 8
  %77 = getelementptr inbounds %class.Solver, %class.Solver* %55, i32 0, i32 10
  store double %76, double* %77, align 8
  %78 = load double, double* %19, align 8
  %79 = getelementptr inbounds %class.Solver, %class.Solver* %55, i32 0, i32 11
  store double %78, double* %79, align 8
  %80 = load double, double* %20, align 8
  %81 = getelementptr inbounds %class.Solver, %class.Solver* %55, i32 0, i32 9
  store double %80, double* %81, align 8
  %82 = getelementptr inbounds %class.Solver, %class.Solver* %55, i32 0, i32 16
  store i8 0, i8* %82, align 4
  %83 = load i32, i32* %13, align 4
  %84 = sext i32 %83 to i64
  %85 = call noalias noundef nonnull i8* @_Znam(i64 noundef %84) #14
  %86 = getelementptr inbounds %class.Solver, %class.Solver* %55, i32 0, i32 5
  store i8* %85, i8** %86, align 8
  store i32 0, i32* %23, align 4
  br label %87

87:                                               ; preds = %93, %11
  %88 = load i32, i32* %23, align 4
  %89 = load i32, i32* %13, align 4
  %90 = icmp slt i32 %88, %89
  br i1 %90, label %91, label %96

91:                                               ; preds = %87
  %92 = load i32, i32* %23, align 4
  call void @_ZN6Solver19update_alpha_statusEi(%class.Solver* noundef nonnull align 8 dereferenceable(117) %55, i32 noundef %92)
  br label %93

93:                                               ; preds = %91
  %94 = load i32, i32* %23, align 4
  %95 = add nsw i32 %94, 1
  store i32 %95, i32* %23, align 4
  br label %87, !llvm.loop !20

96:                                               ; preds = %87
  %97 = load i32, i32* %13, align 4
  %98 = sext i32 %97 to i64
  %99 = call { i64, i1 } @llvm.umul.with.overflow.i64(i64 %98, i64 4)
  %100 = extractvalue { i64, i1 } %99, 1
  %101 = extractvalue { i64, i1 } %99, 0
  %102 = select i1 %100, i64 -1, i64 %101
  %103 = call noalias noundef nonnull i8* @_Znam(i64 noundef %102) #14
  %104 = bitcast i8* %103 to i32*
  %105 = getelementptr inbounds %class.Solver, %class.Solver* %55, i32 0, i32 13
  store i32* %104, i32** %105, align 8
  store i32 0, i32* %24, align 4
  br label %106

106:                                              ; preds = %117, %96
  %107 = load i32, i32* %24, align 4
  %108 = load i32, i32* %13, align 4
  %109 = icmp slt i32 %107, %108
  br i1 %109, label %110, label %120

110:                                              ; preds = %106
  %111 = load i32, i32* %24, align 4
  %112 = getelementptr inbounds %class.Solver, %class.Solver* %55, i32 0, i32 13
  %113 = load i32*, i32** %112, align 8
  %114 = load i32, i32* %24, align 4
  %115 = sext i32 %114 to i64
  %116 = getelementptr inbounds i32, i32* %113, i64 %115
  store i32 %111, i32* %116, align 4
  br label %117

117:                                              ; preds = %110
  %118 = load i32, i32* %24, align 4
  %119 = add nsw i32 %118, 1
  store i32 %119, i32* %24, align 4
  br label %106, !llvm.loop !21

120:                                              ; preds = %106
  %121 = load i32, i32* %13, align 4
  %122 = getelementptr inbounds %class.Solver, %class.Solver* %55, i32 0, i32 1
  store i32 %121, i32* %122, align 8
  %123 = load i32, i32* %13, align 4
  %124 = sext i32 %123 to i64
  %125 = call { i64, i1 } @llvm.umul.with.overflow.i64(i64 %124, i64 8)
  %126 = extractvalue { i64, i1 } %125, 1
  %127 = extractvalue { i64, i1 } %125, 0
  %128 = select i1 %126, i64 -1, i64 %127
  %129 = call noalias noundef nonnull i8* @_Znam(i64 noundef %128) #14
  %130 = bitcast i8* %129 to double*
  %131 = getelementptr inbounds %class.Solver, %class.Solver* %55, i32 0, i32 4
  store double* %130, double** %131, align 8
  %132 = load i32, i32* %13, align 4
  %133 = sext i32 %132 to i64
  %134 = call { i64, i1 } @llvm.umul.with.overflow.i64(i64 %133, i64 8)
  %135 = extractvalue { i64, i1 } %134, 1
  %136 = extractvalue { i64, i1 } %134, 0
  %137 = select i1 %135, i64 -1, i64 %136
  %138 = call noalias noundef nonnull i8* @_Znam(i64 noundef %137) #14
  %139 = bitcast i8* %138 to double*
  %140 = getelementptr inbounds %class.Solver, %class.Solver* %55, i32 0, i32 14
  store double* %139, double** %140, align 8
  store i32 0, i32* %25, align 4
  br label %141

141:                                              ; preds = %162, %120
  %142 = load i32, i32* %25, align 4
  %143 = load i32, i32* %13, align 4
  %144 = icmp slt i32 %142, %143
  br i1 %144, label %145, label %165

145:                                              ; preds = %141
  %146 = getelementptr inbounds %class.Solver, %class.Solver* %55, i32 0, i32 12
  %147 = load double*, double** %146, align 8
  %148 = load i32, i32* %25, align 4
  %149 = sext i32 %148 to i64
  %150 = getelementptr inbounds double, double* %147, i64 %149
  %151 = load double, double* %150, align 8
  %152 = getelementptr inbounds %class.Solver, %class.Solver* %55, i32 0, i32 4
  %153 = load double*, double** %152, align 8
  %154 = load i32, i32* %25, align 4
  %155 = sext i32 %154 to i64
  %156 = getelementptr inbounds double, double* %153, i64 %155
  store double %151, double* %156, align 8
  %157 = getelementptr inbounds %class.Solver, %class.Solver* %55, i32 0, i32 14
  %158 = load double*, double** %157, align 8
  %159 = load i32, i32* %25, align 4
  %160 = sext i32 %159 to i64
  %161 = getelementptr inbounds double, double* %158, i64 %160
  store double 0.000000e+00, double* %161, align 8
  br label %162

162:                                              ; preds = %145
  %163 = load i32, i32* %25, align 4
  %164 = add nsw i32 %163, 1
  store i32 %164, i32* %25, align 4
  br label %141, !llvm.loop !22

165:                                              ; preds = %141
  store i32 0, i32* %25, align 4
  br label %166

166:                                              ; preds = %240, %165
  %167 = load i32, i32* %25, align 4
  %168 = load i32, i32* %13, align 4
  %169 = icmp slt i32 %167, %168
  br i1 %169, label %170, label %243

170:                                              ; preds = %166
  %171 = load i32, i32* %25, align 4
  %172 = call noundef zeroext i1 @_ZN6Solver14is_lower_boundEi(%class.Solver* noundef nonnull align 8 dereferenceable(117) %55, i32 noundef %171)
  br i1 %172, label %239, label %173

173:                                              ; preds = %170
  %174 = load %class.QMatrix*, %class.QMatrix** %14, align 8
  %175 = load i32, i32* %25, align 4
  %176 = load i32, i32* %13, align 4
  %177 = bitcast %class.QMatrix* %174 to float* (%class.QMatrix*, i32, i32)***
  %178 = load float* (%class.QMatrix*, i32, i32)**, float* (%class.QMatrix*, i32, i32)*** %177, align 8
  %179 = getelementptr inbounds float* (%class.QMatrix*, i32, i32)*, float* (%class.QMatrix*, i32, i32)** %178, i64 0
  %180 = load float* (%class.QMatrix*, i32, i32)*, float* (%class.QMatrix*, i32, i32)** %179, align 8
  %181 = call noundef float* %180(%class.QMatrix* noundef nonnull align 8 dereferenceable(8) %174, i32 noundef %175, i32 noundef %176)
  store float* %181, float** %26, align 8
  %182 = getelementptr inbounds %class.Solver, %class.Solver* %55, i32 0, i32 6
  %183 = load double*, double** %182, align 8
  %184 = load i32, i32* %25, align 4
  %185 = sext i32 %184 to i64
  %186 = getelementptr inbounds double, double* %183, i64 %185
  %187 = load double, double* %186, align 8
  store double %187, double* %27, align 8
  store i32 0, i32* %28, align 4
  br label %188

188:                                              ; preds = %207, %173
  %189 = load i32, i32* %28, align 4
  %190 = load i32, i32* %13, align 4
  %191 = icmp slt i32 %189, %190
  br i1 %191, label %192, label %210

192:                                              ; preds = %188
  %193 = load double, double* %27, align 8
  %194 = load float*, float** %26, align 8
  %195 = load i32, i32* %28, align 4
  %196 = sext i32 %195 to i64
  %197 = getelementptr inbounds float, float* %194, i64 %196
  %198 = load float, float* %197, align 4
  %199 = fpext float %198 to double
  %200 = getelementptr inbounds %class.Solver, %class.Solver* %55, i32 0, i32 4
  %201 = load double*, double** %200, align 8
  %202 = load i32, i32* %28, align 4
  %203 = sext i32 %202 to i64
  %204 = getelementptr inbounds double, double* %201, i64 %203
  %205 = load double, double* %204, align 8
  %206 = call double @llvm.fmuladd.f64(double %193, double %199, double %205)
  store double %206, double* %204, align 8
  br label %207

207:                                              ; preds = %192
  %208 = load i32, i32* %28, align 4
  %209 = add nsw i32 %208, 1
  store i32 %209, i32* %28, align 4
  br label %188, !llvm.loop !23

210:                                              ; preds = %188
  %211 = load i32, i32* %25, align 4
  %212 = call noundef zeroext i1 @_ZN6Solver14is_upper_boundEi(%class.Solver* noundef nonnull align 8 dereferenceable(117) %55, i32 noundef %211)
  br i1 %212, label %213, label %238

213:                                              ; preds = %210
  store i32 0, i32* %28, align 4
  br label %214

214:                                              ; preds = %234, %213
  %215 = load i32, i32* %28, align 4
  %216 = load i32, i32* %13, align 4
  %217 = icmp slt i32 %215, %216
  br i1 %217, label %218, label %237

218:                                              ; preds = %214
  %219 = load i32, i32* %25, align 4
  %220 = call noundef double @_ZN6Solver5get_CEi(%class.Solver* noundef nonnull align 8 dereferenceable(117) %55, i32 noundef %219)
  %221 = load float*, float** %26, align 8
  %222 = load i32, i32* %28, align 4
  %223 = sext i32 %222 to i64
  %224 = getelementptr inbounds float, float* %221, i64 %223
  %225 = load float, float* %224, align 4
  %226 = fpext float %225 to double
  %227 = getelementptr inbounds %class.Solver, %class.Solver* %55, i32 0, i32 14
  %228 = load double*, double** %227, align 8
  %229 = load i32, i32* %28, align 4
  %230 = sext i32 %229 to i64
  %231 = getelementptr inbounds double, double* %228, i64 %230
  %232 = load double, double* %231, align 8
  %233 = call double @llvm.fmuladd.f64(double %220, double %226, double %232)
  store double %233, double* %231, align 8
  br label %234

234:                                              ; preds = %218
  %235 = load i32, i32* %28, align 4
  %236 = add nsw i32 %235, 1
  store i32 %236, i32* %28, align 4
  br label %214, !llvm.loop !24

237:                                              ; preds = %214
  br label %238

238:                                              ; preds = %237, %210
  br label %239

239:                                              ; preds = %238, %170
  br label %240

240:                                              ; preds = %239
  %241 = load i32, i32* %25, align 4
  %242 = add nsw i32 %241, 1
  store i32 %242, i32* %25, align 4
  br label %166, !llvm.loop !25

243:                                              ; preds = %166
  store i32 0, i32* %29, align 4
  %244 = load i32, i32* %13, align 4
  %245 = icmp sgt i32 %244, 21474836
  br i1 %245, label %246, label %247

246:                                              ; preds = %243
  br label %250

247:                                              ; preds = %243
  %248 = load i32, i32* %13, align 4
  %249 = mul nsw i32 100, %248
  br label %250

250:                                              ; preds = %247, %246
  %251 = phi i32 [ 2147483647, %246 ], [ %249, %247 ]
  %252 = call noundef i32 @_ZL3maxIiET_S0_S0_(i32 noundef 10000000, i32 noundef %251)
  store i32 %252, i32* %30, align 4
  %253 = load i32, i32* %13, align 4
  %254 = call noundef i32 @_ZL3minIiET_S0_S0_(i32 noundef %253, i32 noundef 1000)
  %255 = add nsw i32 %254, 1
  store i32 %255, i32* %31, align 4
  br label %256

256:                                              ; preds = %884, %250
  %257 = load i32, i32* %29, align 4
  %258 = load i32, i32* %30, align 4
  %259 = icmp slt i32 %257, %258
  br i1 %259, label %260, label %885

260:                                              ; preds = %256
  %261 = load i32, i32* %31, align 4
  %262 = add nsw i32 %261, -1
  store i32 %262, i32* %31, align 4
  %263 = icmp eq i32 %262, 0
  br i1 %263, label %264, label %275

264:                                              ; preds = %260
  %265 = load i32, i32* %13, align 4
  %266 = call noundef i32 @_ZL3minIiET_S0_S0_(i32 noundef %265, i32 noundef 1000)
  store i32 %266, i32* %31, align 4
  %267 = load i32, i32* %22, align 4
  %268 = icmp ne i32 %267, 0
  br i1 %268, label %269, label %274

269:                                              ; preds = %264
  %270 = bitcast %class.Solver* %55 to void (%class.Solver*)***
  %271 = load void (%class.Solver*)**, void (%class.Solver*)*** %270, align 8
  %272 = getelementptr inbounds void (%class.Solver*)*, void (%class.Solver*)** %271, i64 4
  %273 = load void (%class.Solver*)*, void (%class.Solver*)** %272, align 8
  call void %273(%class.Solver* noundef nonnull align 8 dereferenceable(117) %55)
  br label %274

274:                                              ; preds = %269, %264
  call void (i8*, ...) @_ZL4infoPKcz(i8* noundef getelementptr inbounds ([2 x i8], [2 x i8]* @.str.1, i64 0, i64 0))
  br label %275

275:                                              ; preds = %274, %260
  %276 = bitcast %class.Solver* %55 to i32 (%class.Solver*, i32*, i32*)***
  %277 = load i32 (%class.Solver*, i32*, i32*)**, i32 (%class.Solver*, i32*, i32*)*** %276, align 8
  %278 = getelementptr inbounds i32 (%class.Solver*, i32*, i32*)*, i32 (%class.Solver*, i32*, i32*)** %277, i64 2
  %279 = load i32 (%class.Solver*, i32*, i32*)*, i32 (%class.Solver*, i32*, i32*)** %278, align 8
  %280 = call noundef i32 %279(%class.Solver* noundef nonnull align 8 dereferenceable(117) %55, i32* noundef nonnull align 4 dereferenceable(4) %32, i32* noundef nonnull align 4 dereferenceable(4) %33)
  %281 = icmp ne i32 %280, 0
  br i1 %281, label %282, label %294

282:                                              ; preds = %275
  call void @_ZN6Solver20reconstruct_gradientEv(%class.Solver* noundef nonnull align 8 dereferenceable(117) %55)
  %283 = load i32, i32* %13, align 4
  %284 = getelementptr inbounds %class.Solver, %class.Solver* %55, i32 0, i32 1
  store i32 %283, i32* %284, align 8
  call void (i8*, ...) @_ZL4infoPKcz(i8* noundef getelementptr inbounds ([2 x i8], [2 x i8]* @.str.2, i64 0, i64 0))
  %285 = bitcast %class.Solver* %55 to i32 (%class.Solver*, i32*, i32*)***
  %286 = load i32 (%class.Solver*, i32*, i32*)**, i32 (%class.Solver*, i32*, i32*)*** %285, align 8
  %287 = getelementptr inbounds i32 (%class.Solver*, i32*, i32*)*, i32 (%class.Solver*, i32*, i32*)** %286, i64 2
  %288 = load i32 (%class.Solver*, i32*, i32*)*, i32 (%class.Solver*, i32*, i32*)** %287, align 8
  %289 = call noundef i32 %288(%class.Solver* noundef nonnull align 8 dereferenceable(117) %55, i32* noundef nonnull align 4 dereferenceable(4) %32, i32* noundef nonnull align 4 dereferenceable(4) %33)
  %290 = icmp ne i32 %289, 0
  br i1 %290, label %291, label %292

291:                                              ; preds = %282
  br label %885

292:                                              ; preds = %282
  store i32 1, i32* %31, align 4
  br label %293

293:                                              ; preds = %292
  br label %294

294:                                              ; preds = %293, %275
  %295 = load i32, i32* %29, align 4
  %296 = add nsw i32 %295, 1
  store i32 %296, i32* %29, align 4
  %297 = load %class.QMatrix*, %class.QMatrix** %14, align 8
  %298 = load i32, i32* %32, align 4
  %299 = getelementptr inbounds %class.Solver, %class.Solver* %55, i32 0, i32 1
  %300 = load i32, i32* %299, align 8
  %301 = bitcast %class.QMatrix* %297 to float* (%class.QMatrix*, i32, i32)***
  %302 = load float* (%class.QMatrix*, i32, i32)**, float* (%class.QMatrix*, i32, i32)*** %301, align 8
  %303 = getelementptr inbounds float* (%class.QMatrix*, i32, i32)*, float* (%class.QMatrix*, i32, i32)** %302, i64 0
  %304 = load float* (%class.QMatrix*, i32, i32)*, float* (%class.QMatrix*, i32, i32)** %303, align 8
  %305 = call noundef float* %304(%class.QMatrix* noundef nonnull align 8 dereferenceable(8) %297, i32 noundef %298, i32 noundef %300)
  store float* %305, float** %34, align 8
  %306 = load %class.QMatrix*, %class.QMatrix** %14, align 8
  %307 = load i32, i32* %33, align 4
  %308 = getelementptr inbounds %class.Solver, %class.Solver* %55, i32 0, i32 1
  %309 = load i32, i32* %308, align 8
  %310 = bitcast %class.QMatrix* %306 to float* (%class.QMatrix*, i32, i32)***
  %311 = load float* (%class.QMatrix*, i32, i32)**, float* (%class.QMatrix*, i32, i32)*** %310, align 8
  %312 = getelementptr inbounds float* (%class.QMatrix*, i32, i32)*, float* (%class.QMatrix*, i32, i32)** %311, i64 0
  %313 = load float* (%class.QMatrix*, i32, i32)*, float* (%class.QMatrix*, i32, i32)** %312, align 8
  %314 = call noundef float* %313(%class.QMatrix* noundef nonnull align 8 dereferenceable(8) %306, i32 noundef %307, i32 noundef %309)
  store float* %314, float** %35, align 8
  %315 = load i32, i32* %32, align 4
  %316 = call noundef double @_ZN6Solver5get_CEi(%class.Solver* noundef nonnull align 8 dereferenceable(117) %55, i32 noundef %315)
  store double %316, double* %36, align 8
  %317 = load i32, i32* %33, align 4
  %318 = call noundef double @_ZN6Solver5get_CEi(%class.Solver* noundef nonnull align 8 dereferenceable(117) %55, i32 noundef %317)
  store double %318, double* %37, align 8
  %319 = getelementptr inbounds %class.Solver, %class.Solver* %55, i32 0, i32 6
  %320 = load double*, double** %319, align 8
  %321 = load i32, i32* %32, align 4
  %322 = sext i32 %321 to i64
  %323 = getelementptr inbounds double, double* %320, i64 %322
  %324 = load double, double* %323, align 8
  store double %324, double* %38, align 8
  %325 = getelementptr inbounds %class.Solver, %class.Solver* %55, i32 0, i32 6
  %326 = load double*, double** %325, align 8
  %327 = load i32, i32* %33, align 4
  %328 = sext i32 %327 to i64
  %329 = getelementptr inbounds double, double* %326, i64 %328
  %330 = load double, double* %329, align 8
  store double %330, double* %39, align 8
  %331 = getelementptr inbounds %class.Solver, %class.Solver* %55, i32 0, i32 3
  %332 = load i8*, i8** %331, align 8
  %333 = load i32, i32* %32, align 4
  %334 = sext i32 %333 to i64
  %335 = getelementptr inbounds i8, i8* %332, i64 %334
  %336 = load i8, i8* %335, align 1
  %337 = sext i8 %336 to i32
  %338 = getelementptr inbounds %class.Solver, %class.Solver* %55, i32 0, i32 3
  %339 = load i8*, i8** %338, align 8
  %340 = load i32, i32* %33, align 4
  %341 = sext i32 %340 to i64
  %342 = getelementptr inbounds i8, i8* %339, i64 %341
  %343 = load i8, i8* %342, align 1
  %344 = sext i8 %343 to i32
  %345 = icmp ne i32 %337, %344
  br i1 %345, label %346, label %519

346:                                              ; preds = %294
  %347 = getelementptr inbounds %class.Solver, %class.Solver* %55, i32 0, i32 8
  %348 = load double*, double** %347, align 8
  %349 = load i32, i32* %32, align 4
  %350 = sext i32 %349 to i64
  %351 = getelementptr inbounds double, double* %348, i64 %350
  %352 = load double, double* %351, align 8
  %353 = getelementptr inbounds %class.Solver, %class.Solver* %55, i32 0, i32 8
  %354 = load double*, double** %353, align 8
  %355 = load i32, i32* %33, align 4
  %356 = sext i32 %355 to i64
  %357 = getelementptr inbounds double, double* %354, i64 %356
  %358 = load double, double* %357, align 8
  %359 = fadd double %352, %358
  %360 = load float*, float** %34, align 8
  %361 = load i32, i32* %33, align 4
  %362 = sext i32 %361 to i64
  %363 = getelementptr inbounds float, float* %360, i64 %362
  %364 = load float, float* %363, align 4
  %365 = fmul float 2.000000e+00, %364
  %366 = fpext float %365 to double
  %367 = fadd double %359, %366
  store double %367, double* %40, align 8
  %368 = load double, double* %40, align 8
  %369 = fcmp ole double %368, 0.000000e+00
  br i1 %369, label %370, label %371

370:                                              ; preds = %346
  store double 0x3D719799812DEA11, double* %40, align 8
  br label %371

371:                                              ; preds = %370, %346
  %372 = getelementptr inbounds %class.Solver, %class.Solver* %55, i32 0, i32 4
  %373 = load double*, double** %372, align 8
  %374 = load i32, i32* %32, align 4
  %375 = sext i32 %374 to i64
  %376 = getelementptr inbounds double, double* %373, i64 %375
  %377 = load double, double* %376, align 8
  %378 = fneg double %377
  %379 = getelementptr inbounds %class.Solver, %class.Solver* %55, i32 0, i32 4
  %380 = load double*, double** %379, align 8
  %381 = load i32, i32* %33, align 4
  %382 = sext i32 %381 to i64
  %383 = getelementptr inbounds double, double* %380, i64 %382
  %384 = load double, double* %383, align 8
  %385 = fsub double %378, %384
  %386 = load double, double* %40, align 8
  %387 = fdiv double %385, %386
  store double %387, double* %41, align 8
  %388 = getelementptr inbounds %class.Solver, %class.Solver* %55, i32 0, i32 6
  %389 = load double*, double** %388, align 8
  %390 = load i32, i32* %32, align 4
  %391 = sext i32 %390 to i64
  %392 = getelementptr inbounds double, double* %389, i64 %391
  %393 = load double, double* %392, align 8
  %394 = getelementptr inbounds %class.Solver, %class.Solver* %55, i32 0, i32 6
  %395 = load double*, double** %394, align 8
  %396 = load i32, i32* %33, align 4
  %397 = sext i32 %396 to i64
  %398 = getelementptr inbounds double, double* %395, i64 %397
  %399 = load double, double* %398, align 8
  %400 = fsub double %393, %399
  store double %400, double* %42, align 8
  %401 = load double, double* %41, align 8
  %402 = getelementptr inbounds %class.Solver, %class.Solver* %55, i32 0, i32 6
  %403 = load double*, double** %402, align 8
  %404 = load i32, i32* %32, align 4
  %405 = sext i32 %404 to i64
  %406 = getelementptr inbounds double, double* %403, i64 %405
  %407 = load double, double* %406, align 8
  %408 = fadd double %407, %401
  store double %408, double* %406, align 8
  %409 = load double, double* %41, align 8
  %410 = getelementptr inbounds %class.Solver, %class.Solver* %55, i32 0, i32 6
  %411 = load double*, double** %410, align 8
  %412 = load i32, i32* %33, align 4
  %413 = sext i32 %412 to i64
  %414 = getelementptr inbounds double, double* %411, i64 %413
  %415 = load double, double* %414, align 8
  %416 = fadd double %415, %409
  store double %416, double* %414, align 8
  %417 = load double, double* %42, align 8
  %418 = fcmp ogt double %417, 0.000000e+00
  br i1 %418, label %419, label %440

419:                                              ; preds = %371
  %420 = getelementptr inbounds %class.Solver, %class.Solver* %55, i32 0, i32 6
  %421 = load double*, double** %420, align 8
  %422 = load i32, i32* %33, align 4
  %423 = sext i32 %422 to i64
  %424 = getelementptr inbounds double, double* %421, i64 %423
  %425 = load double, double* %424, align 8
  %426 = fcmp olt double %425, 0.000000e+00
  br i1 %426, label %427, label %439

427:                                              ; preds = %419
  %428 = getelementptr inbounds %class.Solver, %class.Solver* %55, i32 0, i32 6
  %429 = load double*, double** %428, align 8
  %430 = load i32, i32* %33, align 4
  %431 = sext i32 %430 to i64
  %432 = getelementptr inbounds double, double* %429, i64 %431
  store double 0.000000e+00, double* %432, align 8
  %433 = load double, double* %42, align 8
  %434 = getelementptr inbounds %class.Solver, %class.Solver* %55, i32 0, i32 6
  %435 = load double*, double** %434, align 8
  %436 = load i32, i32* %32, align 4
  %437 = sext i32 %436 to i64
  %438 = getelementptr inbounds double, double* %435, i64 %437
  store double %433, double* %438, align 8
  br label %439

439:                                              ; preds = %427, %419
  br label %462

440:                                              ; preds = %371
  %441 = getelementptr inbounds %class.Solver, %class.Solver* %55, i32 0, i32 6
  %442 = load double*, double** %441, align 8
  %443 = load i32, i32* %32, align 4
  %444 = sext i32 %443 to i64
  %445 = getelementptr inbounds double, double* %442, i64 %444
  %446 = load double, double* %445, align 8
  %447 = fcmp olt double %446, 0.000000e+00
  br i1 %447, label %448, label %461

448:                                              ; preds = %440
  %449 = getelementptr inbounds %class.Solver, %class.Solver* %55, i32 0, i32 6
  %450 = load double*, double** %449, align 8
  %451 = load i32, i32* %32, align 4
  %452 = sext i32 %451 to i64
  %453 = getelementptr inbounds double, double* %450, i64 %452
  store double 0.000000e+00, double* %453, align 8
  %454 = load double, double* %42, align 8
  %455 = fneg double %454
  %456 = getelementptr inbounds %class.Solver, %class.Solver* %55, i32 0, i32 6
  %457 = load double*, double** %456, align 8
  %458 = load i32, i32* %33, align 4
  %459 = sext i32 %458 to i64
  %460 = getelementptr inbounds double, double* %457, i64 %459
  store double %455, double* %460, align 8
  br label %461

461:                                              ; preds = %448, %440
  br label %462

462:                                              ; preds = %461, %439
  %463 = load double, double* %42, align 8
  %464 = load double, double* %36, align 8
  %465 = load double, double* %37, align 8
  %466 = fsub double %464, %465
  %467 = fcmp ogt double %463, %466
  br i1 %467, label %468, label %493

468:                                              ; preds = %462
  %469 = getelementptr inbounds %class.Solver, %class.Solver* %55, i32 0, i32 6
  %470 = load double*, double** %469, align 8
  %471 = load i32, i32* %32, align 4
  %472 = sext i32 %471 to i64
  %473 = getelementptr inbounds double, double* %470, i64 %472
  %474 = load double, double* %473, align 8
  %475 = load double, double* %36, align 8
  %476 = fcmp ogt double %474, %475
  br i1 %476, label %477, label %492

477:                                              ; preds = %468
  %478 = load double, double* %36, align 8
  %479 = getelementptr inbounds %class.Solver, %class.Solver* %55, i32 0, i32 6
  %480 = load double*, double** %479, align 8
  %481 = load i32, i32* %32, align 4
  %482 = sext i32 %481 to i64
  %483 = getelementptr inbounds double, double* %480, i64 %482
  store double %478, double* %483, align 8
  %484 = load double, double* %36, align 8
  %485 = load double, double* %42, align 8
  %486 = fsub double %484, %485
  %487 = getelementptr inbounds %class.Solver, %class.Solver* %55, i32 0, i32 6
  %488 = load double*, double** %487, align 8
  %489 = load i32, i32* %33, align 4
  %490 = sext i32 %489 to i64
  %491 = getelementptr inbounds double, double* %488, i64 %490
  store double %486, double* %491, align 8
  br label %492

492:                                              ; preds = %477, %468
  br label %518

493:                                              ; preds = %462
  %494 = getelementptr inbounds %class.Solver, %class.Solver* %55, i32 0, i32 6
  %495 = load double*, double** %494, align 8
  %496 = load i32, i32* %33, align 4
  %497 = sext i32 %496 to i64
  %498 = getelementptr inbounds double, double* %495, i64 %497
  %499 = load double, double* %498, align 8
  %500 = load double, double* %37, align 8
  %501 = fcmp ogt double %499, %500
  br i1 %501, label %502, label %517

502:                                              ; preds = %493
  %503 = load double, double* %37, align 8
  %504 = getelementptr inbounds %class.Solver, %class.Solver* %55, i32 0, i32 6
  %505 = load double*, double** %504, align 8
  %506 = load i32, i32* %33, align 4
  %507 = sext i32 %506 to i64
  %508 = getelementptr inbounds double, double* %505, i64 %507
  store double %503, double* %508, align 8
  %509 = load double, double* %37, align 8
  %510 = load double, double* %42, align 8
  %511 = fadd double %509, %510
  %512 = getelementptr inbounds %class.Solver, %class.Solver* %55, i32 0, i32 6
  %513 = load double*, double** %512, align 8
  %514 = load i32, i32* %32, align 4
  %515 = sext i32 %514 to i64
  %516 = getelementptr inbounds double, double* %513, i64 %515
  store double %511, double* %516, align 8
  br label %517

517:                                              ; preds = %502, %493
  br label %518

518:                                              ; preds = %517, %492
  br label %689

519:                                              ; preds = %294
  %520 = getelementptr inbounds %class.Solver, %class.Solver* %55, i32 0, i32 8
  %521 = load double*, double** %520, align 8
  %522 = load i32, i32* %32, align 4
  %523 = sext i32 %522 to i64
  %524 = getelementptr inbounds double, double* %521, i64 %523
  %525 = load double, double* %524, align 8
  %526 = getelementptr inbounds %class.Solver, %class.Solver* %55, i32 0, i32 8
  %527 = load double*, double** %526, align 8
  %528 = load i32, i32* %33, align 4
  %529 = sext i32 %528 to i64
  %530 = getelementptr inbounds double, double* %527, i64 %529
  %531 = load double, double* %530, align 8
  %532 = fadd double %525, %531
  %533 = load float*, float** %34, align 8
  %534 = load i32, i32* %33, align 4
  %535 = sext i32 %534 to i64
  %536 = getelementptr inbounds float, float* %533, i64 %535
  %537 = load float, float* %536, align 4
  %538 = fmul float 2.000000e+00, %537
  %539 = fpext float %538 to double
  %540 = fsub double %532, %539
  store double %540, double* %43, align 8
  %541 = load double, double* %43, align 8
  %542 = fcmp ole double %541, 0.000000e+00
  br i1 %542, label %543, label %544

543:                                              ; preds = %519
  store double 0x3D719799812DEA11, double* %43, align 8
  br label %544

544:                                              ; preds = %543, %519
  %545 = getelementptr inbounds %class.Solver, %class.Solver* %55, i32 0, i32 4
  %546 = load double*, double** %545, align 8
  %547 = load i32, i32* %32, align 4
  %548 = sext i32 %547 to i64
  %549 = getelementptr inbounds double, double* %546, i64 %548
  %550 = load double, double* %549, align 8
  %551 = getelementptr inbounds %class.Solver, %class.Solver* %55, i32 0, i32 4
  %552 = load double*, double** %551, align 8
  %553 = load i32, i32* %33, align 4
  %554 = sext i32 %553 to i64
  %555 = getelementptr inbounds double, double* %552, i64 %554
  %556 = load double, double* %555, align 8
  %557 = fsub double %550, %556
  %558 = load double, double* %43, align 8
  %559 = fdiv double %557, %558
  store double %559, double* %44, align 8
  %560 = getelementptr inbounds %class.Solver, %class.Solver* %55, i32 0, i32 6
  %561 = load double*, double** %560, align 8
  %562 = load i32, i32* %32, align 4
  %563 = sext i32 %562 to i64
  %564 = getelementptr inbounds double, double* %561, i64 %563
  %565 = load double, double* %564, align 8
  %566 = getelementptr inbounds %class.Solver, %class.Solver* %55, i32 0, i32 6
  %567 = load double*, double** %566, align 8
  %568 = load i32, i32* %33, align 4
  %569 = sext i32 %568 to i64
  %570 = getelementptr inbounds double, double* %567, i64 %569
  %571 = load double, double* %570, align 8
  %572 = fadd double %565, %571
  store double %572, double* %45, align 8
  %573 = load double, double* %44, align 8
  %574 = getelementptr inbounds %class.Solver, %class.Solver* %55, i32 0, i32 6
  %575 = load double*, double** %574, align 8
  %576 = load i32, i32* %32, align 4
  %577 = sext i32 %576 to i64
  %578 = getelementptr inbounds double, double* %575, i64 %577
  %579 = load double, double* %578, align 8
  %580 = fsub double %579, %573
  store double %580, double* %578, align 8
  %581 = load double, double* %44, align 8
  %582 = getelementptr inbounds %class.Solver, %class.Solver* %55, i32 0, i32 6
  %583 = load double*, double** %582, align 8
  %584 = load i32, i32* %33, align 4
  %585 = sext i32 %584 to i64
  %586 = getelementptr inbounds double, double* %583, i64 %585
  %587 = load double, double* %586, align 8
  %588 = fadd double %587, %581
  store double %588, double* %586, align 8
  %589 = load double, double* %45, align 8
  %590 = load double, double* %36, align 8
  %591 = fcmp ogt double %589, %590
  br i1 %591, label %592, label %617

592:                                              ; preds = %544
  %593 = getelementptr inbounds %class.Solver, %class.Solver* %55, i32 0, i32 6
  %594 = load double*, double** %593, align 8
  %595 = load i32, i32* %32, align 4
  %596 = sext i32 %595 to i64
  %597 = getelementptr inbounds double, double* %594, i64 %596
  %598 = load double, double* %597, align 8
  %599 = load double, double* %36, align 8
  %600 = fcmp ogt double %598, %599
  br i1 %600, label %601, label %616

601:                                              ; preds = %592
  %602 = load double, double* %36, align 8
  %603 = getelementptr inbounds %class.Solver, %class.Solver* %55, i32 0, i32 6
  %604 = load double*, double** %603, align 8
  %605 = load i32, i32* %32, align 4
  %606 = sext i32 %605 to i64
  %607 = getelementptr inbounds double, double* %604, i64 %606
  store double %602, double* %607, align 8
  %608 = load double, double* %45, align 8
  %609 = load double, double* %36, align 8
  %610 = fsub double %608, %609
  %611 = getelementptr inbounds %class.Solver, %class.Solver* %55, i32 0, i32 6
  %612 = load double*, double** %611, align 8
  %613 = load i32, i32* %33, align 4
  %614 = sext i32 %613 to i64
  %615 = getelementptr inbounds double, double* %612, i64 %614
  store double %610, double* %615, align 8
  br label %616

616:                                              ; preds = %601, %592
  br label %638

617:                                              ; preds = %544
  %618 = getelementptr inbounds %class.Solver, %class.Solver* %55, i32 0, i32 6
  %619 = load double*, double** %618, align 8
  %620 = load i32, i32* %33, align 4
  %621 = sext i32 %620 to i64
  %622 = getelementptr inbounds double, double* %619, i64 %621
  %623 = load double, double* %622, align 8
  %624 = fcmp olt double %623, 0.000000e+00
  br i1 %624, label %625, label %637

625:                                              ; preds = %617
  %626 = getelementptr inbounds %class.Solver, %class.Solver* %55, i32 0, i32 6
  %627 = load double*, double** %626, align 8
  %628 = load i32, i32* %33, align 4
  %629 = sext i32 %628 to i64
  %630 = getelementptr inbounds double, double* %627, i64 %629
  store double 0.000000e+00, double* %630, align 8
  %631 = load double, double* %45, align 8
  %632 = getelementptr inbounds %class.Solver, %class.Solver* %55, i32 0, i32 6
  %633 = load double*, double** %632, align 8
  %634 = load i32, i32* %32, align 4
  %635 = sext i32 %634 to i64
  %636 = getelementptr inbounds double, double* %633, i64 %635
  store double %631, double* %636, align 8
  br label %637

637:                                              ; preds = %625, %617
  br label %638

638:                                              ; preds = %637, %616
  %639 = load double, double* %45, align 8
  %640 = load double, double* %37, align 8
  %641 = fcmp ogt double %639, %640
  br i1 %641, label %642, label %667

642:                                              ; preds = %638
  %643 = getelementptr inbounds %class.Solver, %class.Solver* %55, i32 0, i32 6
  %644 = load double*, double** %643, align 8
  %645 = load i32, i32* %33, align 4
  %646 = sext i32 %645 to i64
  %647 = getelementptr inbounds double, double* %644, i64 %646
  %648 = load double, double* %647, align 8
  %649 = load double, double* %37, align 8
  %650 = fcmp ogt double %648, %649
  br i1 %650, label %651, label %666

651:                                              ; preds = %642
  %652 = load double, double* %37, align 8
  %653 = getelementptr inbounds %class.Solver, %class.Solver* %55, i32 0, i32 6
  %654 = load double*, double** %653, align 8
  %655 = load i32, i32* %33, align 4
  %656 = sext i32 %655 to i64
  %657 = getelementptr inbounds double, double* %654, i64 %656
  store double %652, double* %657, align 8
  %658 = load double, double* %45, align 8
  %659 = load double, double* %37, align 8
  %660 = fsub double %658, %659
  %661 = getelementptr inbounds %class.Solver, %class.Solver* %55, i32 0, i32 6
  %662 = load double*, double** %661, align 8
  %663 = load i32, i32* %32, align 4
  %664 = sext i32 %663 to i64
  %665 = getelementptr inbounds double, double* %662, i64 %664
  store double %660, double* %665, align 8
  br label %666

666:                                              ; preds = %651, %642
  br label %688

667:                                              ; preds = %638
  %668 = getelementptr inbounds %class.Solver, %class.Solver* %55, i32 0, i32 6
  %669 = load double*, double** %668, align 8
  %670 = load i32, i32* %32, align 4
  %671 = sext i32 %670 to i64
  %672 = getelementptr inbounds double, double* %669, i64 %671
  %673 = load double, double* %672, align 8
  %674 = fcmp olt double %673, 0.000000e+00
  br i1 %674, label %675, label %687

675:                                              ; preds = %667
  %676 = getelementptr inbounds %class.Solver, %class.Solver* %55, i32 0, i32 6
  %677 = load double*, double** %676, align 8
  %678 = load i32, i32* %32, align 4
  %679 = sext i32 %678 to i64
  %680 = getelementptr inbounds double, double* %677, i64 %679
  store double 0.000000e+00, double* %680, align 8
  %681 = load double, double* %45, align 8
  %682 = getelementptr inbounds %class.Solver, %class.Solver* %55, i32 0, i32 6
  %683 = load double*, double** %682, align 8
  %684 = load i32, i32* %33, align 4
  %685 = sext i32 %684 to i64
  %686 = getelementptr inbounds double, double* %683, i64 %685
  store double %681, double* %686, align 8
  br label %687

687:                                              ; preds = %675, %667
  br label %688

688:                                              ; preds = %687, %666
  br label %689

689:                                              ; preds = %688, %518
  %690 = getelementptr inbounds %class.Solver, %class.Solver* %55, i32 0, i32 6
  %691 = load double*, double** %690, align 8
  %692 = load i32, i32* %32, align 4
  %693 = sext i32 %692 to i64
  %694 = getelementptr inbounds double, double* %691, i64 %693
  %695 = load double, double* %694, align 8
  %696 = load double, double* %38, align 8
  %697 = fsub double %695, %696
  store double %697, double* %46, align 8
  %698 = getelementptr inbounds %class.Solver, %class.Solver* %55, i32 0, i32 6
  %699 = load double*, double** %698, align 8
  %700 = load i32, i32* %33, align 4
  %701 = sext i32 %700 to i64
  %702 = getelementptr inbounds double, double* %699, i64 %701
  %703 = load double, double* %702, align 8
  %704 = load double, double* %39, align 8
  %705 = fsub double %703, %704
  store double %705, double* %47, align 8
  store i32 0, i32* %48, align 4
  br label %706

706:                                              ; preds = %735, %689
  %707 = load i32, i32* %48, align 4
  %708 = getelementptr inbounds %class.Solver, %class.Solver* %55, i32 0, i32 1
  %709 = load i32, i32* %708, align 8
  %710 = icmp slt i32 %707, %709
  br i1 %710, label %711, label %738

711:                                              ; preds = %706
  %712 = load float*, float** %34, align 8
  %713 = load i32, i32* %48, align 4
  %714 = sext i32 %713 to i64
  %715 = getelementptr inbounds float, float* %712, i64 %714
  %716 = load float, float* %715, align 4
  %717 = fpext float %716 to double
  %718 = load double, double* %46, align 8
  %719 = load float*, float** %35, align 8
  %720 = load i32, i32* %48, align 4
  %721 = sext i32 %720 to i64
  %722 = getelementptr inbounds float, float* %719, i64 %721
  %723 = load float, float* %722, align 4
  %724 = fpext float %723 to double
  %725 = load double, double* %47, align 8
  %726 = fmul double %724, %725
  %727 = call double @llvm.fmuladd.f64(double %717, double %718, double %726)
  %728 = getelementptr inbounds %class.Solver, %class.Solver* %55, i32 0, i32 4
  %729 = load double*, double** %728, align 8
  %730 = load i32, i32* %48, align 4
  %731 = sext i32 %730 to i64
  %732 = getelementptr inbounds double, double* %729, i64 %731
  %733 = load double, double* %732, align 8
  %734 = fadd double %733, %727
  store double %734, double* %732, align 8
  br label %735

735:                                              ; preds = %711
  %736 = load i32, i32* %48, align 4
  %737 = add nsw i32 %736, 1
  store i32 %737, i32* %48, align 4
  br label %706, !llvm.loop !26

738:                                              ; preds = %706
  %739 = load i32, i32* %32, align 4
  %740 = call noundef zeroext i1 @_ZN6Solver14is_upper_boundEi(%class.Solver* noundef nonnull align 8 dereferenceable(117) %55, i32 noundef %739)
  %741 = zext i1 %740 to i8
  store i8 %741, i8* %49, align 1
  %742 = load i32, i32* %33, align 4
  %743 = call noundef zeroext i1 @_ZN6Solver14is_upper_boundEi(%class.Solver* noundef nonnull align 8 dereferenceable(117) %55, i32 noundef %742)
  %744 = zext i1 %743 to i8
  store i8 %744, i8* %50, align 1
  %745 = load i32, i32* %32, align 4
  call void @_ZN6Solver19update_alpha_statusEi(%class.Solver* noundef nonnull align 8 dereferenceable(117) %55, i32 noundef %745)
  %746 = load i32, i32* %33, align 4
  call void @_ZN6Solver19update_alpha_statusEi(%class.Solver* noundef nonnull align 8 dereferenceable(117) %55, i32 noundef %746)
  %747 = load i8, i8* %49, align 1
  %748 = trunc i8 %747 to i1
  %749 = zext i1 %748 to i32
  %750 = load i32, i32* %32, align 4
  %751 = call noundef zeroext i1 @_ZN6Solver14is_upper_boundEi(%class.Solver* noundef nonnull align 8 dereferenceable(117) %55, i32 noundef %750)
  %752 = zext i1 %751 to i32
  %753 = icmp ne i32 %749, %752
  br i1 %753, label %754, label %815

754:                                              ; preds = %738
  %755 = load %class.QMatrix*, %class.QMatrix** %14, align 8
  %756 = load i32, i32* %32, align 4
  %757 = load i32, i32* %13, align 4
  %758 = bitcast %class.QMatrix* %755 to float* (%class.QMatrix*, i32, i32)***
  %759 = load float* (%class.QMatrix*, i32, i32)**, float* (%class.QMatrix*, i32, i32)*** %758, align 8
  %760 = getelementptr inbounds float* (%class.QMatrix*, i32, i32)*, float* (%class.QMatrix*, i32, i32)** %759, i64 0
  %761 = load float* (%class.QMatrix*, i32, i32)*, float* (%class.QMatrix*, i32, i32)** %760, align 8
  %762 = call noundef float* %761(%class.QMatrix* noundef nonnull align 8 dereferenceable(8) %755, i32 noundef %756, i32 noundef %757)
  store float* %762, float** %34, align 8
  %763 = load i8, i8* %49, align 1
  %764 = trunc i8 %763 to i1
  br i1 %764, label %765, label %790

765:                                              ; preds = %754
  store i32 0, i32* %51, align 4
  br label %766

766:                                              ; preds = %786, %765
  %767 = load i32, i32* %51, align 4
  %768 = load i32, i32* %13, align 4
  %769 = icmp slt i32 %767, %768
  br i1 %769, label %770, label %789

770:                                              ; preds = %766
  %771 = load double, double* %36, align 8
  %772 = load float*, float** %34, align 8
  %773 = load i32, i32* %51, align 4
  %774 = sext i32 %773 to i64
  %775 = getelementptr inbounds float, float* %772, i64 %774
  %776 = load float, float* %775, align 4
  %777 = fpext float %776 to double
  %778 = getelementptr inbounds %class.Solver, %class.Solver* %55, i32 0, i32 14
  %779 = load double*, double** %778, align 8
  %780 = load i32, i32* %51, align 4
  %781 = sext i32 %780 to i64
  %782 = getelementptr inbounds double, double* %779, i64 %781
  %783 = load double, double* %782, align 8
  %784 = fneg double %771
  %785 = call double @llvm.fmuladd.f64(double %784, double %777, double %783)
  store double %785, double* %782, align 8
  br label %786

786:                                              ; preds = %770
  %787 = load i32, i32* %51, align 4
  %788 = add nsw i32 %787, 1
  store i32 %788, i32* %51, align 4
  br label %766, !llvm.loop !27

789:                                              ; preds = %766
  br label %814

790:                                              ; preds = %754
  store i32 0, i32* %51, align 4
  br label %791

791:                                              ; preds = %810, %790
  %792 = load i32, i32* %51, align 4
  %793 = load i32, i32* %13, align 4
  %794 = icmp slt i32 %792, %793
  br i1 %794, label %795, label %813

795:                                              ; preds = %791
  %796 = load double, double* %36, align 8
  %797 = load float*, float** %34, align 8
  %798 = load i32, i32* %51, align 4
  %799 = sext i32 %798 to i64
  %800 = getelementptr inbounds float, float* %797, i64 %799
  %801 = load float, float* %800, align 4
  %802 = fpext float %801 to double
  %803 = getelementptr inbounds %class.Solver, %class.Solver* %55, i32 0, i32 14
  %804 = load double*, double** %803, align 8
  %805 = load i32, i32* %51, align 4
  %806 = sext i32 %805 to i64
  %807 = getelementptr inbounds double, double* %804, i64 %806
  %808 = load double, double* %807, align 8
  %809 = call double @llvm.fmuladd.f64(double %796, double %802, double %808)
  store double %809, double* %807, align 8
  br label %810

810:                                              ; preds = %795
  %811 = load i32, i32* %51, align 4
  %812 = add nsw i32 %811, 1
  store i32 %812, i32* %51, align 4
  br label %791, !llvm.loop !28

813:                                              ; preds = %791
  br label %814

814:                                              ; preds = %813, %789
  br label %815

815:                                              ; preds = %814, %738
  %816 = load i8, i8* %50, align 1
  %817 = trunc i8 %816 to i1
  %818 = zext i1 %817 to i32
  %819 = load i32, i32* %33, align 4
  %820 = call noundef zeroext i1 @_ZN6Solver14is_upper_boundEi(%class.Solver* noundef nonnull align 8 dereferenceable(117) %55, i32 noundef %819)
  %821 = zext i1 %820 to i32
  %822 = icmp ne i32 %818, %821
  br i1 %822, label %823, label %884

823:                                              ; preds = %815
  %824 = load %class.QMatrix*, %class.QMatrix** %14, align 8
  %825 = load i32, i32* %33, align 4
  %826 = load i32, i32* %13, align 4
  %827 = bitcast %class.QMatrix* %824 to float* (%class.QMatrix*, i32, i32)***
  %828 = load float* (%class.QMatrix*, i32, i32)**, float* (%class.QMatrix*, i32, i32)*** %827, align 8
  %829 = getelementptr inbounds float* (%class.QMatrix*, i32, i32)*, float* (%class.QMatrix*, i32, i32)** %828, i64 0
  %830 = load float* (%class.QMatrix*, i32, i32)*, float* (%class.QMatrix*, i32, i32)** %829, align 8
  %831 = call noundef float* %830(%class.QMatrix* noundef nonnull align 8 dereferenceable(8) %824, i32 noundef %825, i32 noundef %826)
  store float* %831, float** %35, align 8
  %832 = load i8, i8* %50, align 1
  %833 = trunc i8 %832 to i1
  br i1 %833, label %834, label %859

834:                                              ; preds = %823
  store i32 0, i32* %51, align 4
  br label %835

835:                                              ; preds = %855, %834
  %836 = load i32, i32* %51, align 4
  %837 = load i32, i32* %13, align 4
  %838 = icmp slt i32 %836, %837
  br i1 %838, label %839, label %858

839:                                              ; preds = %835
  %840 = load double, double* %37, align 8
  %841 = load float*, float** %35, align 8
  %842 = load i32, i32* %51, align 4
  %843 = sext i32 %842 to i64
  %844 = getelementptr inbounds float, float* %841, i64 %843
  %845 = load float, float* %844, align 4
  %846 = fpext float %845 to double
  %847 = getelementptr inbounds %class.Solver, %class.Solver* %55, i32 0, i32 14
  %848 = load double*, double** %847, align 8
  %849 = load i32, i32* %51, align 4
  %850 = sext i32 %849 to i64
  %851 = getelementptr inbounds double, double* %848, i64 %850
  %852 = load double, double* %851, align 8
  %853 = fneg double %840
  %854 = call double @llvm.fmuladd.f64(double %853, double %846, double %852)
  store double %854, double* %851, align 8
  br label %855

855:                                              ; preds = %839
  %856 = load i32, i32* %51, align 4
  %857 = add nsw i32 %856, 1
  store i32 %857, i32* %51, align 4
  br label %835, !llvm.loop !29

858:                                              ; preds = %835
  br label %883

859:                                              ; preds = %823
  store i32 0, i32* %51, align 4
  br label %860

860:                                              ; preds = %879, %859
  %861 = load i32, i32* %51, align 4
  %862 = load i32, i32* %13, align 4
  %863 = icmp slt i32 %861, %862
  br i1 %863, label %864, label %882

864:                                              ; preds = %860
  %865 = load double, double* %37, align 8
  %866 = load float*, float** %35, align 8
  %867 = load i32, i32* %51, align 4
  %868 = sext i32 %867 to i64
  %869 = getelementptr inbounds float, float* %866, i64 %868
  %870 = load float, float* %869, align 4
  %871 = fpext float %870 to double
  %872 = getelementptr inbounds %class.Solver, %class.Solver* %55, i32 0, i32 14
  %873 = load double*, double** %872, align 8
  %874 = load i32, i32* %51, align 4
  %875 = sext i32 %874 to i64
  %876 = getelementptr inbounds double, double* %873, i64 %875
  %877 = load double, double* %876, align 8
  %878 = call double @llvm.fmuladd.f64(double %865, double %871, double %877)
  store double %878, double* %876, align 8
  br label %879

879:                                              ; preds = %864
  %880 = load i32, i32* %51, align 4
  %881 = add nsw i32 %880, 1
  store i32 %881, i32* %51, align 4
  br label %860, !llvm.loop !30

882:                                              ; preds = %860
  br label %883

883:                                              ; preds = %882, %858
  br label %884

884:                                              ; preds = %883, %815
  br label %256, !llvm.loop !31

885:                                              ; preds = %291, %256
  %886 = load i32, i32* %29, align 4
  %887 = load i32, i32* %30, align 4
  %888 = icmp sge i32 %886, %887
  br i1 %888, label %889, label %900

889:                                              ; preds = %885
  %890 = getelementptr inbounds %class.Solver, %class.Solver* %55, i32 0, i32 1
  %891 = load i32, i32* %890, align 8
  %892 = load i32, i32* %13, align 4
  %893 = icmp slt i32 %891, %892
  br i1 %893, label %894, label %897

894:                                              ; preds = %889
  call void @_ZN6Solver20reconstruct_gradientEv(%class.Solver* noundef nonnull align 8 dereferenceable(117) %55)
  %895 = load i32, i32* %13, align 4
  %896 = getelementptr inbounds %class.Solver, %class.Solver* %55, i32 0, i32 1
  store i32 %895, i32* %896, align 8
  call void (i8*, ...) @_ZL4infoPKcz(i8* noundef getelementptr inbounds ([2 x i8], [2 x i8]* @.str.2, i64 0, i64 0))
  br label %897

897:                                              ; preds = %894, %889
  %898 = load %struct._IO_FILE*, %struct._IO_FILE** @stderr, align 8
  %899 = call i32 (%struct._IO_FILE*, i8*, ...) @fprintf(%struct._IO_FILE* noundef %898, i8* noundef getelementptr inbounds ([45 x i8], [45 x i8]* @.str.3, i64 0, i64 0))
  br label %900

900:                                              ; preds = %897, %885
  %901 = bitcast %class.Solver* %55 to double (%class.Solver*)***
  %902 = load double (%class.Solver*)**, double (%class.Solver*)*** %901, align 8
  %903 = getelementptr inbounds double (%class.Solver*)*, double (%class.Solver*)** %902, i64 3
  %904 = load double (%class.Solver*)*, double (%class.Solver*)** %903, align 8
  %905 = call noundef double %904(%class.Solver* noundef nonnull align 8 dereferenceable(117) %55)
  %906 = load %"struct.Solver::SolutionInfo"*, %"struct.Solver::SolutionInfo"** %21, align 8
  %907 = getelementptr inbounds %"struct.Solver::SolutionInfo", %"struct.Solver::SolutionInfo"* %906, i32 0, i32 1
  store double %905, double* %907, align 8
  store double 0.000000e+00, double* %52, align 8
  store i32 0, i32* %53, align 4
  br label %908

908:                                              ; preds = %934, %900
  %909 = load i32, i32* %53, align 4
  %910 = load i32, i32* %13, align 4
  %911 = icmp slt i32 %909, %910
  br i1 %911, label %912, label %937

912:                                              ; preds = %908
  %913 = getelementptr inbounds %class.Solver, %class.Solver* %55, i32 0, i32 6
  %914 = load double*, double** %913, align 8
  %915 = load i32, i32* %53, align 4
  %916 = sext i32 %915 to i64
  %917 = getelementptr inbounds double, double* %914, i64 %916
  %918 = load double, double* %917, align 8
  %919 = getelementptr inbounds %class.Solver, %class.Solver* %55, i32 0, i32 4
  %920 = load double*, double** %919, align 8
  %921 = load i32, i32* %53, align 4
  %922 = sext i32 %921 to i64
  %923 = getelementptr inbounds double, double* %920, i64 %922
  %924 = load double, double* %923, align 8
  %925 = getelementptr inbounds %class.Solver, %class.Solver* %55, i32 0, i32 12
  %926 = load double*, double** %925, align 8
  %927 = load i32, i32* %53, align 4
  %928 = sext i32 %927 to i64
  %929 = getelementptr inbounds double, double* %926, i64 %928
  %930 = load double, double* %929, align 8
  %931 = fadd double %924, %930
  %932 = load double, double* %52, align 8
  %933 = call double @llvm.fmuladd.f64(double %918, double %931, double %932)
  store double %933, double* %52, align 8
  br label %934

934:                                              ; preds = %912
  %935 = load i32, i32* %53, align 4
  %936 = add nsw i32 %935, 1
  store i32 %936, i32* %53, align 4
  br label %908, !llvm.loop !32

937:                                              ; preds = %908
  %938 = load double, double* %52, align 8
  %939 = fdiv double %938, 2.000000e+00
  %940 = load %"struct.Solver::SolutionInfo"*, %"struct.Solver::SolutionInfo"** %21, align 8
  %941 = getelementptr inbounds %"struct.Solver::SolutionInfo", %"struct.Solver::SolutionInfo"* %940, i32 0, i32 0
  store double %939, double* %941, align 8
  store i32 0, i32* %54, align 4
  br label %942

942:                                              ; preds = %962, %937
  %943 = load i32, i32* %54, align 4
  %944 = load i32, i32* %13, align 4
  %945 = icmp slt i32 %943, %944
  br i1 %945, label %946, label %965

946:                                              ; preds = %942
  %947 = getelementptr inbounds %class.Solver, %class.Solver* %55, i32 0, i32 6
  %948 = load double*, double** %947, align 8
  %949 = load i32, i32* %54, align 4
  %950 = sext i32 %949 to i64
  %951 = getelementptr inbounds double, double* %948, i64 %950
  %952 = load double, double* %951, align 8
  %953 = load double*, double** %17, align 8
  %954 = getelementptr inbounds %class.Solver, %class.Solver* %55, i32 0, i32 13
  %955 = load i32*, i32** %954, align 8
  %956 = load i32, i32* %54, align 4
  %957 = sext i32 %956 to i64
  %958 = getelementptr inbounds i32, i32* %955, i64 %957
  %959 = load i32, i32* %958, align 4
  %960 = sext i32 %959 to i64
  %961 = getelementptr inbounds double, double* %953, i64 %960
  store double %952, double* %961, align 8
  br label %962

962:                                              ; preds = %946
  %963 = load i32, i32* %54, align 4
  %964 = add nsw i32 %963, 1
  store i32 %964, i32* %54, align 4
  br label %942, !llvm.loop !33

965:                                              ; preds = %942
  %966 = load double, double* %18, align 8
  %967 = load %"struct.Solver::SolutionInfo"*, %"struct.Solver::SolutionInfo"** %21, align 8
  %968 = getelementptr inbounds %"struct.Solver::SolutionInfo", %"struct.Solver::SolutionInfo"* %967, i32 0, i32 2
  store double %966, double* %968, align 8
  %969 = load double, double* %19, align 8
  %970 = load %"struct.Solver::SolutionInfo"*, %"struct.Solver::SolutionInfo"** %21, align 8
  %971 = getelementptr inbounds %"struct.Solver::SolutionInfo", %"struct.Solver::SolutionInfo"* %970, i32 0, i32 3
  store double %969, double* %971, align 8
  %972 = load i32, i32* %29, align 4
  call void (i8*, ...) @_ZL4infoPKcz(i8* noundef getelementptr inbounds ([36 x i8], [36 x i8]* @.str.4, i64 0, i64 0), i32 noundef %972)
  %973 = getelementptr inbounds %class.Solver, %class.Solver* %55, i32 0, i32 12
  %974 = load double*, double** %973, align 8
  %975 = icmp eq double* %974, null
  br i1 %975, label %978, label %976

976:                                              ; preds = %965
  %977 = bitcast double* %974 to i8*
  call void @_ZdaPv(i8* noundef %977) #15
  br label %978

978:                                              ; preds = %976, %965
  %979 = getelementptr inbounds %class.Solver, %class.Solver* %55, i32 0, i32 3
  %980 = load i8*, i8** %979, align 8
  %981 = icmp eq i8* %980, null
  br i1 %981, label %983, label %982

982:                                              ; preds = %978
  call void @_ZdaPv(i8* noundef %980) #15
  br label %983

983:                                              ; preds = %982, %978
  %984 = getelementptr inbounds %class.Solver, %class.Solver* %55, i32 0, i32 6
  %985 = load double*, double** %984, align 8
  %986 = icmp eq double* %985, null
  br i1 %986, label %989, label %987

987:                                              ; preds = %983
  %988 = bitcast double* %985 to i8*
  call void @_ZdaPv(i8* noundef %988) #15
  br label %989

989:                                              ; preds = %987, %983
  %990 = getelementptr inbounds %class.Solver, %class.Solver* %55, i32 0, i32 5
  %991 = load i8*, i8** %990, align 8
  %992 = icmp eq i8* %991, null
  br i1 %992, label %994, label %993

993:                                              ; preds = %989
  call void @_ZdaPv(i8* noundef %991) #15
  br label %994

994:                                              ; preds = %993, %989
  %995 = getelementptr inbounds %class.Solver, %class.Solver* %55, i32 0, i32 13
  %996 = load i32*, i32** %995, align 8
  %997 = icmp eq i32* %996, null
  br i1 %997, label %1000, label %998

998:                                              ; preds = %994
  %999 = bitcast i32* %996 to i8*
  call void @_ZdaPv(i8* noundef %999) #15
  br label %1000

1000:                                             ; preds = %998, %994
  %1001 = getelementptr inbounds %class.Solver, %class.Solver* %55, i32 0, i32 4
  %1002 = load double*, double** %1001, align 8
  %1003 = icmp eq double* %1002, null
  br i1 %1003, label %1006, label %1004

1004:                                             ; preds = %1000
  %1005 = bitcast double* %1002 to i8*
  call void @_ZdaPv(i8* noundef %1005) #15
  br label %1006

1006:                                             ; preds = %1004, %1000
  %1007 = getelementptr inbounds %class.Solver, %class.Solver* %55, i32 0, i32 14
  %1008 = load double*, double** %1007, align 8
  %1009 = icmp eq double* %1008, null
  br i1 %1009, label %1012, label %1010

1010:                                             ; preds = %1006
  %1011 = bitcast double* %1008 to i8*
  call void @_ZdaPv(i8* noundef %1011) #15
  br label %1012

1012:                                             ; preds = %1010, %1006
  ret void
}

; Function Attrs: mustprogress noinline optnone uwtable
define internal void @_ZL5cloneIKddEvRPT0_PT_i(double** noundef nonnull align 8 dereferenceable(8) %0, double* noundef %1, i32 noundef %2) #4 {
  %4 = alloca double**, align 8
  %5 = alloca double*, align 8
  %6 = alloca i32, align 4
  store double** %0, double*** %4, align 8
  store double* %1, double** %5, align 8
  store i32 %2, i32* %6, align 4
  %7 = load i32, i32* %6, align 4
  %8 = sext i32 %7 to i64
  %9 = call { i64, i1 } @llvm.umul.with.overflow.i64(i64 %8, i64 8)
  %10 = extractvalue { i64, i1 } %9, 1
  %11 = extractvalue { i64, i1 } %9, 0
  %12 = select i1 %10, i64 -1, i64 %11
  %13 = call noalias noundef nonnull i8* @_Znam(i64 noundef %12) #14
  %14 = bitcast i8* %13 to double*
  %15 = load double**, double*** %4, align 8
  store double* %14, double** %15, align 8
  %16 = load double**, double*** %4, align 8
  %17 = load double*, double** %16, align 8
  %18 = bitcast double* %17 to i8*
  %19 = load double*, double** %5, align 8
  %20 = bitcast double* %19 to i8*
  %21 = load i32, i32* %6, align 4
  %22 = sext i32 %21 to i64
  %23 = mul i64 8, %22
  call void @llvm.memcpy.p0i8.p0i8.i64(i8* align 1 %18, i8* align 1 %20, i64 %23, i1 false)
  ret void
}

; Function Attrs: mustprogress noinline optnone uwtable
define internal void @_ZL5cloneIKaaEvRPT0_PT_i(i8** noundef nonnull align 8 dereferenceable(8) %0, i8* noundef %1, i32 noundef %2) #4 {
  %4 = alloca i8**, align 8
  %5 = alloca i8*, align 8
  %6 = alloca i32, align 4
  store i8** %0, i8*** %4, align 8
  store i8* %1, i8** %5, align 8
  store i32 %2, i32* %6, align 4
  %7 = load i32, i32* %6, align 4
  %8 = sext i32 %7 to i64
  %9 = call noalias noundef nonnull i8* @_Znam(i64 noundef %8) #14
  %10 = load i8**, i8*** %4, align 8
  store i8* %9, i8** %10, align 8
  %11 = load i8**, i8*** %4, align 8
  %12 = load i8*, i8** %11, align 8
  %13 = load i8*, i8** %5, align 8
  %14 = load i32, i32* %6, align 4
  %15 = sext i32 %14 to i64
  %16 = mul i64 1, %15
  call void @llvm.memcpy.p0i8.p0i8.i64(i8* align 1 %12, i8* align 1 %13, i64 %16, i1 false)
  ret void
}

; Function Attrs: mustprogress noinline optnone uwtable
define internal void @_ZL5cloneIddEvRPT0_PT_i(double** noundef nonnull align 8 dereferenceable(8) %0, double* noundef %1, i32 noundef %2) #4 {
  %4 = alloca double**, align 8
  %5 = alloca double*, align 8
  %6 = alloca i32, align 4
  store double** %0, double*** %4, align 8
  store double* %1, double** %5, align 8
  store i32 %2, i32* %6, align 4
  %7 = load i32, i32* %6, align 4
  %8 = sext i32 %7 to i64
  %9 = call { i64, i1 } @llvm.umul.with.overflow.i64(i64 %8, i64 8)
  %10 = extractvalue { i64, i1 } %9, 1
  %11 = extractvalue { i64, i1 } %9, 0
  %12 = select i1 %10, i64 -1, i64 %11
  %13 = call noalias noundef nonnull i8* @_Znam(i64 noundef %12) #14
  %14 = bitcast i8* %13 to double*
  %15 = load double**, double*** %4, align 8
  store double* %14, double** %15, align 8
  %16 = load double**, double*** %4, align 8
  %17 = load double*, double** %16, align 8
  %18 = bitcast double* %17 to i8*
  %19 = load double*, double** %5, align 8
  %20 = bitcast double* %19 to i8*
  %21 = load i32, i32* %6, align 4
  %22 = sext i32 %21 to i64
  %23 = mul i64 8, %22
  call void @llvm.memcpy.p0i8.p0i8.i64(i8* align 1 %18, i8* align 1 %20, i64 %23, i1 false)
  ret void
}

; Function Attrs: mustprogress noinline optnone uwtable
define linkonce_odr dso_local void @_ZN6Solver19update_alpha_statusEi(%class.Solver* noundef nonnull align 8 dereferenceable(117) %0, i32 noundef %1) #4 comdat align 2 {
  %3 = alloca %class.Solver*, align 8
  %4 = alloca i32, align 4
  store %class.Solver* %0, %class.Solver** %3, align 8
  store i32 %1, i32* %4, align 4
  %5 = load %class.Solver*, %class.Solver** %3, align 8
  %6 = getelementptr inbounds %class.Solver, %class.Solver* %5, i32 0, i32 6
  %7 = load double*, double** %6, align 8
  %8 = load i32, i32* %4, align 4
  %9 = sext i32 %8 to i64
  %10 = getelementptr inbounds double, double* %7, i64 %9
  %11 = load double, double* %10, align 8
  %12 = load i32, i32* %4, align 4
  %13 = call noundef double @_ZN6Solver5get_CEi(%class.Solver* noundef nonnull align 8 dereferenceable(117) %5, i32 noundef %12)
  %14 = fcmp oge double %11, %13
  br i1 %14, label %15, label %21

15:                                               ; preds = %2
  %16 = getelementptr inbounds %class.Solver, %class.Solver* %5, i32 0, i32 5
  %17 = load i8*, i8** %16, align 8
  %18 = load i32, i32* %4, align 4
  %19 = sext i32 %18 to i64
  %20 = getelementptr inbounds i8, i8* %17, i64 %19
  store i8 1, i8* %20, align 1
  br label %42

21:                                               ; preds = %2
  %22 = getelementptr inbounds %class.Solver, %class.Solver* %5, i32 0, i32 6
  %23 = load double*, double** %22, align 8
  %24 = load i32, i32* %4, align 4
  %25 = sext i32 %24 to i64
  %26 = getelementptr inbounds double, double* %23, i64 %25
  %27 = load double, double* %26, align 8
  %28 = fcmp ole double %27, 0.000000e+00
  br i1 %28, label %29, label %35

29:                                               ; preds = %21
  %30 = getelementptr inbounds %class.Solver, %class.Solver* %5, i32 0, i32 5
  %31 = load i8*, i8** %30, align 8
  %32 = load i32, i32* %4, align 4
  %33 = sext i32 %32 to i64
  %34 = getelementptr inbounds i8, i8* %31, i64 %33
  store i8 0, i8* %34, align 1
  br label %41

35:                                               ; preds = %21
  %36 = getelementptr inbounds %class.Solver, %class.Solver* %5, i32 0, i32 5
  %37 = load i8*, i8** %36, align 8
  %38 = load i32, i32* %4, align 4
  %39 = sext i32 %38 to i64
  %40 = getelementptr inbounds i8, i8* %37, i64 %39
  store i8 2, i8* %40, align 1
  br label %41

41:                                               ; preds = %35, %29
  br label %42

42:                                               ; preds = %41, %15
  ret void
}

; Function Attrs: mustprogress noinline nounwind optnone uwtable
define linkonce_odr dso_local noundef zeroext i1 @_ZN6Solver14is_lower_boundEi(%class.Solver* noundef nonnull align 8 dereferenceable(117) %0, i32 noundef %1) #2 comdat align 2 {
  %3 = alloca %class.Solver*, align 8
  %4 = alloca i32, align 4
  store %class.Solver* %0, %class.Solver** %3, align 8
  store i32 %1, i32* %4, align 4
  %5 = load %class.Solver*, %class.Solver** %3, align 8
  %6 = getelementptr inbounds %class.Solver, %class.Solver* %5, i32 0, i32 5
  %7 = load i8*, i8** %6, align 8
  %8 = load i32, i32* %4, align 4
  %9 = sext i32 %8 to i64
  %10 = getelementptr inbounds i8, i8* %7, i64 %9
  %11 = load i8, i8* %10, align 1
  %12 = sext i8 %11 to i32
  %13 = icmp eq i32 %12, 0
  ret i1 %13
}

; Function Attrs: mustprogress noinline nounwind optnone uwtable
define linkonce_odr dso_local noundef zeroext i1 @_ZN6Solver14is_upper_boundEi(%class.Solver* noundef nonnull align 8 dereferenceable(117) %0, i32 noundef %1) #2 comdat align 2 {
  %3 = alloca %class.Solver*, align 8
  %4 = alloca i32, align 4
  store %class.Solver* %0, %class.Solver** %3, align 8
  store i32 %1, i32* %4, align 4
  %5 = load %class.Solver*, %class.Solver** %3, align 8
  %6 = getelementptr inbounds %class.Solver, %class.Solver* %5, i32 0, i32 5
  %7 = load i8*, i8** %6, align 8
  %8 = load i32, i32* %4, align 4
  %9 = sext i32 %8 to i64
  %10 = getelementptr inbounds i8, i8* %7, i64 %9
  %11 = load i8, i8* %10, align 1
  %12 = sext i8 %11 to i32
  %13 = icmp eq i32 %12, 1
  ret i1 %13
}

; Function Attrs: mustprogress noinline nounwind optnone uwtable
define linkonce_odr dso_local noundef double @_ZN6Solver5get_CEi(%class.Solver* noundef nonnull align 8 dereferenceable(117) %0, i32 noundef %1) #2 comdat align 2 {
  %3 = alloca %class.Solver*, align 8
  %4 = alloca i32, align 4
  store %class.Solver* %0, %class.Solver** %3, align 8
  store i32 %1, i32* %4, align 4
  %5 = load %class.Solver*, %class.Solver** %3, align 8
  %6 = getelementptr inbounds %class.Solver, %class.Solver* %5, i32 0, i32 3
  %7 = load i8*, i8** %6, align 8
  %8 = load i32, i32* %4, align 4
  %9 = sext i32 %8 to i64
  %10 = getelementptr inbounds i8, i8* %7, i64 %9
  %11 = load i8, i8* %10, align 1
  %12 = sext i8 %11 to i32
  %13 = icmp sgt i32 %12, 0
  br i1 %13, label %14, label %17

14:                                               ; preds = %2
  %15 = getelementptr inbounds %class.Solver, %class.Solver* %5, i32 0, i32 10
  %16 = load double, double* %15, align 8
  br label %20

17:                                               ; preds = %2
  %18 = getelementptr inbounds %class.Solver, %class.Solver* %5, i32 0, i32 11
  %19 = load double, double* %18, align 8
  br label %20

20:                                               ; preds = %17, %14
  %21 = phi double [ %16, %14 ], [ %19, %17 ]
  ret double %21
}

; Function Attrs: mustprogress noinline nounwind optnone uwtable
define internal noundef i32 @_ZL3maxIiET_S0_S0_(i32 noundef %0, i32 noundef %1) #2 {
  %3 = alloca i32, align 4
  %4 = alloca i32, align 4
  store i32 %0, i32* %3, align 4
  store i32 %1, i32* %4, align 4
  %5 = load i32, i32* %3, align 4
  %6 = load i32, i32* %4, align 4
  %7 = icmp sgt i32 %5, %6
  br i1 %7, label %8, label %10

8:                                                ; preds = %2
  %9 = load i32, i32* %3, align 4
  br label %12

10:                                               ; preds = %2
  %11 = load i32, i32* %4, align 4
  br label %12

12:                                               ; preds = %10, %8
  %13 = phi i32 [ %9, %8 ], [ %11, %10 ]
  ret i32 %13
}

; Function Attrs: mustprogress noinline nounwind optnone uwtable
define internal noundef i32 @_ZL3minIiET_S0_S0_(i32 noundef %0, i32 noundef %1) #2 {
  %3 = alloca i32, align 4
  %4 = alloca i32, align 4
  store i32 %0, i32* %3, align 4
  store i32 %1, i32* %4, align 4
  %5 = load i32, i32* %3, align 4
  %6 = load i32, i32* %4, align 4
  %7 = icmp slt i32 %5, %6
  br i1 %7, label %8, label %10

8:                                                ; preds = %2
  %9 = load i32, i32* %3, align 4
  br label %12

10:                                               ; preds = %2
  %11 = load i32, i32* %4, align 4
  br label %12

12:                                               ; preds = %10, %8
  %13 = phi i32 [ %9, %8 ], [ %11, %10 ]
  ret i32 %13
}

declare dso_local i32 @fprintf(%struct._IO_FILE* noundef, i8* noundef, ...) #9

; Function Attrs: mustprogress noinline optnone uwtable
define dso_local noundef i32 @_ZN6Solver18select_working_setERiS0_(%class.Solver* noundef nonnull align 8 dereferenceable(117) %0, i32* noundef nonnull align 4 dereferenceable(4) %1, i32* noundef nonnull align 4 dereferenceable(4) %2) unnamed_addr #4 align 2 {
  %4 = alloca i32, align 4
  %5 = alloca %class.Solver*, align 8
  %6 = alloca i32*, align 8
  %7 = alloca i32*, align 8
  %8 = alloca double, align 8
  %9 = alloca double, align 8
  %10 = alloca i32, align 4
  %11 = alloca i32, align 4
  %12 = alloca double, align 8
  %13 = alloca i32, align 4
  %14 = alloca i32, align 4
  %15 = alloca float*, align 8
  %16 = alloca i32, align 4
  %17 = alloca double, align 8
  %18 = alloca double, align 8
  %19 = alloca double, align 8
  %20 = alloca double, align 8
  %21 = alloca double, align 8
  %22 = alloca double, align 8
  store %class.Solver* %0, %class.Solver** %5, align 8
  store i32* %1, i32** %6, align 8
  store i32* %2, i32** %7, align 8
  %23 = load %class.Solver*, %class.Solver** %5, align 8
  store double 0xFFF0000000000000, double* %8, align 8
  store double 0xFFF0000000000000, double* %9, align 8
  store i32 -1, i32* %10, align 4
  store i32 -1, i32* %11, align 4
  store double 0x7FF0000000000000, double* %12, align 8
  store i32 0, i32* %13, align 4
  br label %24

24:                                               ; preds = %85, %3
  %25 = load i32, i32* %13, align 4
  %26 = getelementptr inbounds %class.Solver, %class.Solver* %23, i32 0, i32 1
  %27 = load i32, i32* %26, align 8
  %28 = icmp slt i32 %25, %27
  br i1 %28, label %29, label %88

29:                                               ; preds = %24
  %30 = getelementptr inbounds %class.Solver, %class.Solver* %23, i32 0, i32 3
  %31 = load i8*, i8** %30, align 8
  %32 = load i32, i32* %13, align 4
  %33 = sext i32 %32 to i64
  %34 = getelementptr inbounds i8, i8* %31, i64 %33
  %35 = load i8, i8* %34, align 1
  %36 = sext i8 %35 to i32
  %37 = icmp eq i32 %36, 1
  br i1 %37, label %38, label %62

38:                                               ; preds = %29
  %39 = load i32, i32* %13, align 4
  %40 = call noundef zeroext i1 @_ZN6Solver14is_upper_boundEi(%class.Solver* noundef nonnull align 8 dereferenceable(117) %23, i32 noundef %39)
  br i1 %40, label %61, label %41

41:                                               ; preds = %38
  %42 = getelementptr inbounds %class.Solver, %class.Solver* %23, i32 0, i32 4
  %43 = load double*, double** %42, align 8
  %44 = load i32, i32* %13, align 4
  %45 = sext i32 %44 to i64
  %46 = getelementptr inbounds double, double* %43, i64 %45
  %47 = load double, double* %46, align 8
  %48 = fneg double %47
  %49 = load double, double* %8, align 8
  %50 = fcmp oge double %48, %49
  br i1 %50, label %51, label %60

51:                                               ; preds = %41
  %52 = getelementptr inbounds %class.Solver, %class.Solver* %23, i32 0, i32 4
  %53 = load double*, double** %52, align 8
  %54 = load i32, i32* %13, align 4
  %55 = sext i32 %54 to i64
  %56 = getelementptr inbounds double, double* %53, i64 %55
  %57 = load double, double* %56, align 8
  %58 = fneg double %57
  store double %58, double* %8, align 8
  %59 = load i32, i32* %13, align 4
  store i32 %59, i32* %10, align 4
  br label %60

60:                                               ; preds = %51, %41
  br label %61

61:                                               ; preds = %60, %38
  br label %84

62:                                               ; preds = %29
  %63 = load i32, i32* %13, align 4
  %64 = call noundef zeroext i1 @_ZN6Solver14is_lower_boundEi(%class.Solver* noundef nonnull align 8 dereferenceable(117) %23, i32 noundef %63)
  br i1 %64, label %83, label %65

65:                                               ; preds = %62
  %66 = getelementptr inbounds %class.Solver, %class.Solver* %23, i32 0, i32 4
  %67 = load double*, double** %66, align 8
  %68 = load i32, i32* %13, align 4
  %69 = sext i32 %68 to i64
  %70 = getelementptr inbounds double, double* %67, i64 %69
  %71 = load double, double* %70, align 8
  %72 = load double, double* %8, align 8
  %73 = fcmp oge double %71, %72
  br i1 %73, label %74, label %82

74:                                               ; preds = %65
  %75 = getelementptr inbounds %class.Solver, %class.Solver* %23, i32 0, i32 4
  %76 = load double*, double** %75, align 8
  %77 = load i32, i32* %13, align 4
  %78 = sext i32 %77 to i64
  %79 = getelementptr inbounds double, double* %76, i64 %78
  %80 = load double, double* %79, align 8
  store double %80, double* %8, align 8
  %81 = load i32, i32* %13, align 4
  store i32 %81, i32* %10, align 4
  br label %82

82:                                               ; preds = %74, %65
  br label %83

83:                                               ; preds = %82, %62
  br label %84

84:                                               ; preds = %83, %61
  br label %85

85:                                               ; preds = %84
  %86 = load i32, i32* %13, align 4
  %87 = add nsw i32 %86, 1
  store i32 %87, i32* %13, align 4
  br label %24, !llvm.loop !34

88:                                               ; preds = %24
  %89 = load i32, i32* %10, align 4
  store i32 %89, i32* %14, align 4
  store float* null, float** %15, align 8
  %90 = load i32, i32* %14, align 4
  %91 = icmp ne i32 %90, -1
  br i1 %91, label %92, label %103

92:                                               ; preds = %88
  %93 = getelementptr inbounds %class.Solver, %class.Solver* %23, i32 0, i32 7
  %94 = load %class.QMatrix*, %class.QMatrix** %93, align 8
  %95 = load i32, i32* %14, align 4
  %96 = getelementptr inbounds %class.Solver, %class.Solver* %23, i32 0, i32 1
  %97 = load i32, i32* %96, align 8
  %98 = bitcast %class.QMatrix* %94 to float* (%class.QMatrix*, i32, i32)***
  %99 = load float* (%class.QMatrix*, i32, i32)**, float* (%class.QMatrix*, i32, i32)*** %98, align 8
  %100 = getelementptr inbounds float* (%class.QMatrix*, i32, i32)*, float* (%class.QMatrix*, i32, i32)** %99, i64 0
  %101 = load float* (%class.QMatrix*, i32, i32)*, float* (%class.QMatrix*, i32, i32)** %100, align 8
  %102 = call noundef float* %101(%class.QMatrix* noundef nonnull align 8 dereferenceable(8) %94, i32 noundef %95, i32 noundef %97)
  store float* %102, float** %15, align 8
  br label %103

103:                                              ; preds = %92, %88
  store i32 0, i32* %16, align 4
  br label %104

104:                                              ; preds = %292, %103
  %105 = load i32, i32* %16, align 4
  %106 = getelementptr inbounds %class.Solver, %class.Solver* %23, i32 0, i32 1
  %107 = load i32, i32* %106, align 8
  %108 = icmp slt i32 %105, %107
  br i1 %108, label %109, label %295

109:                                              ; preds = %104
  %110 = getelementptr inbounds %class.Solver, %class.Solver* %23, i32 0, i32 3
  %111 = load i8*, i8** %110, align 8
  %112 = load i32, i32* %16, align 4
  %113 = sext i32 %112 to i64
  %114 = getelementptr inbounds i8, i8* %111, i64 %113
  %115 = load i8, i8* %114, align 1
  %116 = sext i8 %115 to i32
  %117 = icmp eq i32 %116, 1
  br i1 %117, label %118, label %204

118:                                              ; preds = %109
  %119 = load i32, i32* %16, align 4
  %120 = call noundef zeroext i1 @_ZN6Solver14is_lower_boundEi(%class.Solver* noundef nonnull align 8 dereferenceable(117) %23, i32 noundef %119)
  br i1 %120, label %203, label %121

121:                                              ; preds = %118
  %122 = load double, double* %8, align 8
  %123 = getelementptr inbounds %class.Solver, %class.Solver* %23, i32 0, i32 4
  %124 = load double*, double** %123, align 8
  %125 = load i32, i32* %16, align 4
  %126 = sext i32 %125 to i64
  %127 = getelementptr inbounds double, double* %124, i64 %126
  %128 = load double, double* %127, align 8
  %129 = fadd double %122, %128
  store double %129, double* %17, align 8
  %130 = getelementptr inbounds %class.Solver, %class.Solver* %23, i32 0, i32 4
  %131 = load double*, double** %130, align 8
  %132 = load i32, i32* %16, align 4
  %133 = sext i32 %132 to i64
  %134 = getelementptr inbounds double, double* %131, i64 %133
  %135 = load double, double* %134, align 8
  %136 = load double, double* %9, align 8
  %137 = fcmp oge double %135, %136
  br i1 %137, label %138, label %145

138:                                              ; preds = %121
  %139 = getelementptr inbounds %class.Solver, %class.Solver* %23, i32 0, i32 4
  %140 = load double*, double** %139, align 8
  %141 = load i32, i32* %16, align 4
  %142 = sext i32 %141 to i64
  %143 = getelementptr inbounds double, double* %140, i64 %142
  %144 = load double, double* %143, align 8
  store double %144, double* %9, align 8
  br label %145

145:                                              ; preds = %138, %121
  %146 = load double, double* %17, align 8
  %147 = fcmp ogt double %146, 0.000000e+00
  br i1 %147, label %148, label %202

148:                                              ; preds = %145
  %149 = getelementptr inbounds %class.Solver, %class.Solver* %23, i32 0, i32 8
  %150 = load double*, double** %149, align 8
  %151 = load i32, i32* %14, align 4
  %152 = sext i32 %151 to i64
  %153 = getelementptr inbounds double, double* %150, i64 %152
  %154 = load double, double* %153, align 8
  %155 = getelementptr inbounds %class.Solver, %class.Solver* %23, i32 0, i32 8
  %156 = load double*, double** %155, align 8
  %157 = load i32, i32* %16, align 4
  %158 = sext i32 %157 to i64
  %159 = getelementptr inbounds double, double* %156, i64 %158
  %160 = load double, double* %159, align 8
  %161 = fadd double %154, %160
  %162 = getelementptr inbounds %class.Solver, %class.Solver* %23, i32 0, i32 3
  %163 = load i8*, i8** %162, align 8
  %164 = load i32, i32* %14, align 4
  %165 = sext i32 %164 to i64
  %166 = getelementptr inbounds i8, i8* %163, i64 %165
  %167 = load i8, i8* %166, align 1
  %168 = sext i8 %167 to i32
  %169 = sitofp i32 %168 to double
  %170 = fmul double 2.000000e+00, %169
  %171 = load float*, float** %15, align 8
  %172 = load i32, i32* %16, align 4
  %173 = sext i32 %172 to i64
  %174 = getelementptr inbounds float, float* %171, i64 %173
  %175 = load float, float* %174, align 4
  %176 = fpext float %175 to double
  %177 = fneg double %170
  %178 = call double @llvm.fmuladd.f64(double %177, double %176, double %161)
  store double %178, double* %19, align 8
  %179 = load double, double* %19, align 8
  %180 = fcmp ogt double %179, 0.000000e+00
  br i1 %180, label %181, label %188

181:                                              ; preds = %148
  %182 = load double, double* %17, align 8
  %183 = load double, double* %17, align 8
  %184 = fmul double %182, %183
  %185 = fneg double %184
  %186 = load double, double* %19, align 8
  %187 = fdiv double %185, %186
  store double %187, double* %18, align 8
  br label %194

188:                                              ; preds = %148
  %189 = load double, double* %17, align 8
  %190 = load double, double* %17, align 8
  %191 = fmul double %189, %190
  %192 = fneg double %191
  %193 = fdiv double %192, 0x3D719799812DEA11
  store double %193, double* %18, align 8
  br label %194

194:                                              ; preds = %188, %181
  %195 = load double, double* %18, align 8
  %196 = load double, double* %12, align 8
  %197 = fcmp ole double %195, %196
  br i1 %197, label %198, label %201

198:                                              ; preds = %194
  %199 = load i32, i32* %16, align 4
  store i32 %199, i32* %11, align 4
  %200 = load double, double* %18, align 8
  store double %200, double* %12, align 8
  br label %201

201:                                              ; preds = %198, %194
  br label %202

202:                                              ; preds = %201, %145
  br label %203

203:                                              ; preds = %202, %118
  br label %291

204:                                              ; preds = %109
  %205 = load i32, i32* %16, align 4
  %206 = call noundef zeroext i1 @_ZN6Solver14is_upper_boundEi(%class.Solver* noundef nonnull align 8 dereferenceable(117) %23, i32 noundef %205)
  br i1 %206, label %290, label %207

207:                                              ; preds = %204
  %208 = load double, double* %8, align 8
  %209 = getelementptr inbounds %class.Solver, %class.Solver* %23, i32 0, i32 4
  %210 = load double*, double** %209, align 8
  %211 = load i32, i32* %16, align 4
  %212 = sext i32 %211 to i64
  %213 = getelementptr inbounds double, double* %210, i64 %212
  %214 = load double, double* %213, align 8
  %215 = fsub double %208, %214
  store double %215, double* %20, align 8
  %216 = getelementptr inbounds %class.Solver, %class.Solver* %23, i32 0, i32 4
  %217 = load double*, double** %216, align 8
  %218 = load i32, i32* %16, align 4
  %219 = sext i32 %218 to i64
  %220 = getelementptr inbounds double, double* %217, i64 %219
  %221 = load double, double* %220, align 8
  %222 = fneg double %221
  %223 = load double, double* %9, align 8
  %224 = fcmp oge double %222, %223
  br i1 %224, label %225, label %233

225:                                              ; preds = %207
  %226 = getelementptr inbounds %class.Solver, %class.Solver* %23, i32 0, i32 4
  %227 = load double*, double** %226, align 8
  %228 = load i32, i32* %16, align 4
  %229 = sext i32 %228 to i64
  %230 = getelementptr inbounds double, double* %227, i64 %229
  %231 = load double, double* %230, align 8
  %232 = fneg double %231
  store double %232, double* %9, align 8
  br label %233

233:                                              ; preds = %225, %207
  %234 = load double, double* %20, align 8
  %235 = fcmp ogt double %234, 0.000000e+00
  br i1 %235, label %236, label %289

236:                                              ; preds = %233
  %237 = getelementptr inbounds %class.Solver, %class.Solver* %23, i32 0, i32 8
  %238 = load double*, double** %237, align 8
  %239 = load i32, i32* %14, align 4
  %240 = sext i32 %239 to i64
  %241 = getelementptr inbounds double, double* %238, i64 %240
  %242 = load double, double* %241, align 8
  %243 = getelementptr inbounds %class.Solver, %class.Solver* %23, i32 0, i32 8
  %244 = load double*, double** %243, align 8
  %245 = load i32, i32* %16, align 4
  %246 = sext i32 %245 to i64
  %247 = getelementptr inbounds double, double* %244, i64 %246
  %248 = load double, double* %247, align 8
  %249 = fadd double %242, %248
  %250 = getelementptr inbounds %class.Solver, %class.Solver* %23, i32 0, i32 3
  %251 = load i8*, i8** %250, align 8
  %252 = load i32, i32* %14, align 4
  %253 = sext i32 %252 to i64
  %254 = getelementptr inbounds i8, i8* %251, i64 %253
  %255 = load i8, i8* %254, align 1
  %256 = sext i8 %255 to i32
  %257 = sitofp i32 %256 to double
  %258 = fmul double 2.000000e+00, %257
  %259 = load float*, float** %15, align 8
  %260 = load i32, i32* %16, align 4
  %261 = sext i32 %260 to i64
  %262 = getelementptr inbounds float, float* %259, i64 %261
  %263 = load float, float* %262, align 4
  %264 = fpext float %263 to double
  %265 = call double @llvm.fmuladd.f64(double %258, double %264, double %249)
  store double %265, double* %22, align 8
  %266 = load double, double* %22, align 8
  %267 = fcmp ogt double %266, 0.000000e+00
  br i1 %267, label %268, label %275

268:                                              ; preds = %236
  %269 = load double, double* %20, align 8
  %270 = load double, double* %20, align 8
  %271 = fmul double %269, %270
  %272 = fneg double %271
  %273 = load double, double* %22, align 8
  %274 = fdiv double %272, %273
  store double %274, double* %21, align 8
  br label %281

275:                                              ; preds = %236
  %276 = load double, double* %20, align 8
  %277 = load double, double* %20, align 8
  %278 = fmul double %276, %277
  %279 = fneg double %278
  %280 = fdiv double %279, 0x3D719799812DEA11
  store double %280, double* %21, align 8
  br label %281

281:                                              ; preds = %275, %268
  %282 = load double, double* %21, align 8
  %283 = load double, double* %12, align 8
  %284 = fcmp ole double %282, %283
  br i1 %284, label %285, label %288

285:                                              ; preds = %281
  %286 = load i32, i32* %16, align 4
  store i32 %286, i32* %11, align 4
  %287 = load double, double* %21, align 8
  store double %287, double* %12, align 8
  br label %288

288:                                              ; preds = %285, %281
  br label %289

289:                                              ; preds = %288, %233
  br label %290

290:                                              ; preds = %289, %204
  br label %291

291:                                              ; preds = %290, %203
  br label %292

292:                                              ; preds = %291
  %293 = load i32, i32* %16, align 4
  %294 = add nsw i32 %293, 1
  store i32 %294, i32* %16, align 4
  br label %104, !llvm.loop !35

295:                                              ; preds = %104
  %296 = load double, double* %8, align 8
  %297 = load double, double* %9, align 8
  %298 = fadd double %296, %297
  %299 = getelementptr inbounds %class.Solver, %class.Solver* %23, i32 0, i32 9
  %300 = load double, double* %299, align 8
  %301 = fcmp olt double %298, %300
  br i1 %301, label %305, label %302

302:                                              ; preds = %295
  %303 = load i32, i32* %11, align 4
  %304 = icmp eq i32 %303, -1
  br i1 %304, label %305, label %306

305:                                              ; preds = %302, %295
  store i32 1, i32* %4, align 4
  br label %311

306:                                              ; preds = %302
  %307 = load i32, i32* %10, align 4
  %308 = load i32*, i32** %6, align 8
  store i32 %307, i32* %308, align 4
  %309 = load i32, i32* %11, align 4
  %310 = load i32*, i32** %7, align 8
  store i32 %309, i32* %310, align 4
  store i32 0, i32* %4, align 4
  br label %311

311:                                              ; preds = %306, %305
  %312 = load i32, i32* %4, align 4
  ret i32 %312
}

; Function Attrs: mustprogress noinline optnone uwtable
define dso_local noundef zeroext i1 @_ZN6Solver9be_shrunkEidd(%class.Solver* noundef nonnull align 8 dereferenceable(117) %0, i32 noundef %1, double noundef %2, double noundef %3) #4 align 2 {
  %5 = alloca i1, align 1
  %6 = alloca %class.Solver*, align 8
  %7 = alloca i32, align 4
  %8 = alloca double, align 8
  %9 = alloca double, align 8
  store %class.Solver* %0, %class.Solver** %6, align 8
  store i32 %1, i32* %7, align 4
  store double %2, double* %8, align 8
  store double %3, double* %9, align 8
  %10 = load %class.Solver*, %class.Solver** %6, align 8
  %11 = load i32, i32* %7, align 4
  %12 = call noundef zeroext i1 @_ZN6Solver14is_upper_boundEi(%class.Solver* noundef nonnull align 8 dereferenceable(117) %10, i32 noundef %11)
  br i1 %12, label %13, label %42

13:                                               ; preds = %4
  %14 = getelementptr inbounds %class.Solver, %class.Solver* %10, i32 0, i32 3
  %15 = load i8*, i8** %14, align 8
  %16 = load i32, i32* %7, align 4
  %17 = sext i32 %16 to i64
  %18 = getelementptr inbounds i8, i8* %15, i64 %17
  %19 = load i8, i8* %18, align 1
  %20 = sext i8 %19 to i32
  %21 = icmp eq i32 %20, 1
  br i1 %21, label %22, label %32

22:                                               ; preds = %13
  %23 = getelementptr inbounds %class.Solver, %class.Solver* %10, i32 0, i32 4
  %24 = load double*, double** %23, align 8
  %25 = load i32, i32* %7, align 4
  %26 = sext i32 %25 to i64
  %27 = getelementptr inbounds double, double* %24, i64 %26
  %28 = load double, double* %27, align 8
  %29 = fneg double %28
  %30 = load double, double* %8, align 8
  %31 = fcmp ogt double %29, %30
  store i1 %31, i1* %5, align 1
  br label %73

32:                                               ; preds = %13
  %33 = getelementptr inbounds %class.Solver, %class.Solver* %10, i32 0, i32 4
  %34 = load double*, double** %33, align 8
  %35 = load i32, i32* %7, align 4
  %36 = sext i32 %35 to i64
  %37 = getelementptr inbounds double, double* %34, i64 %36
  %38 = load double, double* %37, align 8
  %39 = fneg double %38
  %40 = load double, double* %9, align 8
  %41 = fcmp ogt double %39, %40
  store i1 %41, i1* %5, align 1
  br label %73

42:                                               ; preds = %4
  %43 = load i32, i32* %7, align 4
  %44 = call noundef zeroext i1 @_ZN6Solver14is_lower_boundEi(%class.Solver* noundef nonnull align 8 dereferenceable(117) %10, i32 noundef %43)
  br i1 %44, label %45, label %72

45:                                               ; preds = %42
  %46 = getelementptr inbounds %class.Solver, %class.Solver* %10, i32 0, i32 3
  %47 = load i8*, i8** %46, align 8
  %48 = load i32, i32* %7, align 4
  %49 = sext i32 %48 to i64
  %50 = getelementptr inbounds i8, i8* %47, i64 %49
  %51 = load i8, i8* %50, align 1
  %52 = sext i8 %51 to i32
  %53 = icmp eq i32 %52, 1
  br i1 %53, label %54, label %63

54:                                               ; preds = %45
  %55 = getelementptr inbounds %class.Solver, %class.Solver* %10, i32 0, i32 4
  %56 = load double*, double** %55, align 8
  %57 = load i32, i32* %7, align 4
  %58 = sext i32 %57 to i64
  %59 = getelementptr inbounds double, double* %56, i64 %58
  %60 = load double, double* %59, align 8
  %61 = load double, double* %9, align 8
  %62 = fcmp ogt double %60, %61
  store i1 %62, i1* %5, align 1
  br label %73

63:                                               ; preds = %45
  %64 = getelementptr inbounds %class.Solver, %class.Solver* %10, i32 0, i32 4
  %65 = load double*, double** %64, align 8
  %66 = load i32, i32* %7, align 4
  %67 = sext i32 %66 to i64
  %68 = getelementptr inbounds double, double* %65, i64 %67
  %69 = load double, double* %68, align 8
  %70 = load double, double* %8, align 8
  %71 = fcmp ogt double %69, %70
  store i1 %71, i1* %5, align 1
  br label %73

72:                                               ; preds = %42
  store i1 false, i1* %5, align 1
  br label %73

73:                                               ; preds = %72, %63, %54, %32, %22
  %74 = load i1, i1* %5, align 1
  ret i1 %74
}

; Function Attrs: mustprogress noinline optnone uwtable
define dso_local void @_ZN6Solver12do_shrinkingEv(%class.Solver* noundef nonnull align 8 dereferenceable(117) %0) unnamed_addr #4 align 2 {
  %2 = alloca %class.Solver*, align 8
  %3 = alloca i32, align 4
  %4 = alloca double, align 8
  %5 = alloca double, align 8
  store %class.Solver* %0, %class.Solver** %2, align 8
  %6 = load %class.Solver*, %class.Solver** %2, align 8
  store double 0xFFF0000000000000, double* %4, align 8
  store double 0xFFF0000000000000, double* %5, align 8
  store i32 0, i32* %3, align 4
  br label %7

7:                                                ; preds = %108, %1
  %8 = load i32, i32* %3, align 4
  %9 = getelementptr inbounds %class.Solver, %class.Solver* %6, i32 0, i32 1
  %10 = load i32, i32* %9, align 8
  %11 = icmp slt i32 %8, %10
  br i1 %11, label %12, label %111

12:                                               ; preds = %7
  %13 = getelementptr inbounds %class.Solver, %class.Solver* %6, i32 0, i32 3
  %14 = load i8*, i8** %13, align 8
  %15 = load i32, i32* %3, align 4
  %16 = sext i32 %15 to i64
  %17 = getelementptr inbounds i8, i8* %14, i64 %16
  %18 = load i8, i8* %17, align 1
  %19 = sext i8 %18 to i32
  %20 = icmp eq i32 %19, 1
  br i1 %20, label %21, label %64

21:                                               ; preds = %12
  %22 = load i32, i32* %3, align 4
  %23 = call noundef zeroext i1 @_ZN6Solver14is_upper_boundEi(%class.Solver* noundef nonnull align 8 dereferenceable(117) %6, i32 noundef %22)
  br i1 %23, label %43, label %24

24:                                               ; preds = %21
  %25 = getelementptr inbounds %class.Solver, %class.Solver* %6, i32 0, i32 4
  %26 = load double*, double** %25, align 8
  %27 = load i32, i32* %3, align 4
  %28 = sext i32 %27 to i64
  %29 = getelementptr inbounds double, double* %26, i64 %28
  %30 = load double, double* %29, align 8
  %31 = fneg double %30
  %32 = load double, double* %4, align 8
  %33 = fcmp oge double %31, %32
  br i1 %33, label %34, label %42

34:                                               ; preds = %24
  %35 = getelementptr inbounds %class.Solver, %class.Solver* %6, i32 0, i32 4
  %36 = load double*, double** %35, align 8
  %37 = load i32, i32* %3, align 4
  %38 = sext i32 %37 to i64
  %39 = getelementptr inbounds double, double* %36, i64 %38
  %40 = load double, double* %39, align 8
  %41 = fneg double %40
  store double %41, double* %4, align 8
  br label %42

42:                                               ; preds = %34, %24
  br label %43

43:                                               ; preds = %42, %21
  %44 = load i32, i32* %3, align 4
  %45 = call noundef zeroext i1 @_ZN6Solver14is_lower_boundEi(%class.Solver* noundef nonnull align 8 dereferenceable(117) %6, i32 noundef %44)
  br i1 %45, label %63, label %46

46:                                               ; preds = %43
  %47 = getelementptr inbounds %class.Solver, %class.Solver* %6, i32 0, i32 4
  %48 = load double*, double** %47, align 8
  %49 = load i32, i32* %3, align 4
  %50 = sext i32 %49 to i64
  %51 = getelementptr inbounds double, double* %48, i64 %50
  %52 = load double, double* %51, align 8
  %53 = load double, double* %5, align 8
  %54 = fcmp oge double %52, %53
  br i1 %54, label %55, label %62

55:                                               ; preds = %46
  %56 = getelementptr inbounds %class.Solver, %class.Solver* %6, i32 0, i32 4
  %57 = load double*, double** %56, align 8
  %58 = load i32, i32* %3, align 4
  %59 = sext i32 %58 to i64
  %60 = getelementptr inbounds double, double* %57, i64 %59
  %61 = load double, double* %60, align 8
  store double %61, double* %5, align 8
  br label %62

62:                                               ; preds = %55, %46
  br label %63

63:                                               ; preds = %62, %43
  br label %107

64:                                               ; preds = %12
  %65 = load i32, i32* %3, align 4
  %66 = call noundef zeroext i1 @_ZN6Solver14is_upper_boundEi(%class.Solver* noundef nonnull align 8 dereferenceable(117) %6, i32 noundef %65)
  br i1 %66, label %86, label %67

67:                                               ; preds = %64
  %68 = getelementptr inbounds %class.Solver, %class.Solver* %6, i32 0, i32 4
  %69 = load double*, double** %68, align 8
  %70 = load i32, i32* %3, align 4
  %71 = sext i32 %70 to i64
  %72 = getelementptr inbounds double, double* %69, i64 %71
  %73 = load double, double* %72, align 8
  %74 = fneg double %73
  %75 = load double, double* %5, align 8
  %76 = fcmp oge double %74, %75
  br i1 %76, label %77, label %85

77:                                               ; preds = %67
  %78 = getelementptr inbounds %class.Solver, %class.Solver* %6, i32 0, i32 4
  %79 = load double*, double** %78, align 8
  %80 = load i32, i32* %3, align 4
  %81 = sext i32 %80 to i64
  %82 = getelementptr inbounds double, double* %79, i64 %81
  %83 = load double, double* %82, align 8
  %84 = fneg double %83
  store double %84, double* %5, align 8
  br label %85

85:                                               ; preds = %77, %67
  br label %86

86:                                               ; preds = %85, %64
  %87 = load i32, i32* %3, align 4
  %88 = call noundef zeroext i1 @_ZN6Solver14is_lower_boundEi(%class.Solver* noundef nonnull align 8 dereferenceable(117) %6, i32 noundef %87)
  br i1 %88, label %106, label %89

89:                                               ; preds = %86
  %90 = getelementptr inbounds %class.Solver, %class.Solver* %6, i32 0, i32 4
  %91 = load double*, double** %90, align 8
  %92 = load i32, i32* %3, align 4
  %93 = sext i32 %92 to i64
  %94 = getelementptr inbounds double, double* %91, i64 %93
  %95 = load double, double* %94, align 8
  %96 = load double, double* %4, align 8
  %97 = fcmp oge double %95, %96
  br i1 %97, label %98, label %105

98:                                               ; preds = %89
  %99 = getelementptr inbounds %class.Solver, %class.Solver* %6, i32 0, i32 4
  %100 = load double*, double** %99, align 8
  %101 = load i32, i32* %3, align 4
  %102 = sext i32 %101 to i64
  %103 = getelementptr inbounds double, double* %100, i64 %102
  %104 = load double, double* %103, align 8
  store double %104, double* %4, align 8
  br label %105

105:                                              ; preds = %98, %89
  br label %106

106:                                              ; preds = %105, %86
  br label %107

107:                                              ; preds = %106, %63
  br label %108

108:                                              ; preds = %107
  %109 = load i32, i32* %3, align 4
  %110 = add nsw i32 %109, 1
  store i32 %110, i32* %3, align 4
  br label %7, !llvm.loop !36

111:                                              ; preds = %7
  %112 = getelementptr inbounds %class.Solver, %class.Solver* %6, i32 0, i32 16
  %113 = load i8, i8* %112, align 4
  %114 = trunc i8 %113 to i1
  %115 = zext i1 %114 to i32
  %116 = icmp eq i32 %115, 0
  br i1 %116, label %117, label %130

117:                                              ; preds = %111
  %118 = load double, double* %4, align 8
  %119 = load double, double* %5, align 8
  %120 = fadd double %118, %119
  %121 = getelementptr inbounds %class.Solver, %class.Solver* %6, i32 0, i32 9
  %122 = load double, double* %121, align 8
  %123 = fmul double %122, 1.000000e+01
  %124 = fcmp ole double %120, %123
  br i1 %124, label %125, label %130

125:                                              ; preds = %117
  %126 = getelementptr inbounds %class.Solver, %class.Solver* %6, i32 0, i32 16
  store i8 1, i8* %126, align 4
  call void @_ZN6Solver20reconstruct_gradientEv(%class.Solver* noundef nonnull align 8 dereferenceable(117) %6)
  %127 = getelementptr inbounds %class.Solver, %class.Solver* %6, i32 0, i32 15
  %128 = load i32, i32* %127, align 8
  %129 = getelementptr inbounds %class.Solver, %class.Solver* %6, i32 0, i32 1
  store i32 %128, i32* %129, align 8
  call void (i8*, ...) @_ZL4infoPKcz(i8* noundef getelementptr inbounds ([2 x i8], [2 x i8]* @.str.2, i64 0, i64 0))
  br label %130

130:                                              ; preds = %125, %117, %111
  store i32 0, i32* %3, align 4
  br label %131

131:                                              ; preds = %166, %130
  %132 = load i32, i32* %3, align 4
  %133 = getelementptr inbounds %class.Solver, %class.Solver* %6, i32 0, i32 1
  %134 = load i32, i32* %133, align 8
  %135 = icmp slt i32 %132, %134
  br i1 %135, label %136, label %169

136:                                              ; preds = %131
  %137 = load i32, i32* %3, align 4
  %138 = load double, double* %4, align 8
  %139 = load double, double* %5, align 8
  %140 = call noundef zeroext i1 @_ZN6Solver9be_shrunkEidd(%class.Solver* noundef nonnull align 8 dereferenceable(117) %6, i32 noundef %137, double noundef %138, double noundef %139)
  br i1 %140, label %141, label %165

141:                                              ; preds = %136
  %142 = getelementptr inbounds %class.Solver, %class.Solver* %6, i32 0, i32 1
  %143 = load i32, i32* %142, align 8
  %144 = add nsw i32 %143, -1
  store i32 %144, i32* %142, align 8
  br label %145

145:                                              ; preds = %160, %141
  %146 = getelementptr inbounds %class.Solver, %class.Solver* %6, i32 0, i32 1
  %147 = load i32, i32* %146, align 8
  %148 = load i32, i32* %3, align 4
  %149 = icmp sgt i32 %147, %148
  br i1 %149, label %150, label %164

150:                                              ; preds = %145
  %151 = getelementptr inbounds %class.Solver, %class.Solver* %6, i32 0, i32 1
  %152 = load i32, i32* %151, align 8
  %153 = load double, double* %4, align 8
  %154 = load double, double* %5, align 8
  %155 = call noundef zeroext i1 @_ZN6Solver9be_shrunkEidd(%class.Solver* noundef nonnull align 8 dereferenceable(117) %6, i32 noundef %152, double noundef %153, double noundef %154)
  br i1 %155, label %160, label %156

156:                                              ; preds = %150
  %157 = load i32, i32* %3, align 4
  %158 = getelementptr inbounds %class.Solver, %class.Solver* %6, i32 0, i32 1
  %159 = load i32, i32* %158, align 8
  call void @_ZN6Solver10swap_indexEii(%class.Solver* noundef nonnull align 8 dereferenceable(117) %6, i32 noundef %157, i32 noundef %159)
  br label %164

160:                                              ; preds = %150
  %161 = getelementptr inbounds %class.Solver, %class.Solver* %6, i32 0, i32 1
  %162 = load i32, i32* %161, align 8
  %163 = add nsw i32 %162, -1
  store i32 %163, i32* %161, align 8
  br label %145, !llvm.loop !37

164:                                              ; preds = %156, %145
  br label %165

165:                                              ; preds = %164, %136
  br label %166

166:                                              ; preds = %165
  %167 = load i32, i32* %3, align 4
  %168 = add nsw i32 %167, 1
  store i32 %168, i32* %3, align 4
  br label %131, !llvm.loop !38

169:                                              ; preds = %131
  ret void
}

; Function Attrs: mustprogress noinline optnone uwtable
define dso_local noundef double @_ZN6Solver13calculate_rhoEv(%class.Solver* noundef nonnull align 8 dereferenceable(117) %0) unnamed_addr #4 align 2 {
  %2 = alloca %class.Solver*, align 8
  %3 = alloca double, align 8
  %4 = alloca i32, align 4
  %5 = alloca double, align 8
  %6 = alloca double, align 8
  %7 = alloca double, align 8
  %8 = alloca i32, align 4
  %9 = alloca double, align 8
  store %class.Solver* %0, %class.Solver** %2, align 8
  %10 = load %class.Solver*, %class.Solver** %2, align 8
  store i32 0, i32* %4, align 4
  store double 0x7FF0000000000000, double* %5, align 8
  store double 0xFFF0000000000000, double* %6, align 8
  store double 0.000000e+00, double* %7, align 8
  store i32 0, i32* %8, align 4
  br label %11

11:                                               ; preds = %81, %1
  %12 = load i32, i32* %8, align 4
  %13 = getelementptr inbounds %class.Solver, %class.Solver* %10, i32 0, i32 1
  %14 = load i32, i32* %13, align 8
  %15 = icmp slt i32 %12, %14
  br i1 %15, label %16, label %84

16:                                               ; preds = %11
  %17 = getelementptr inbounds %class.Solver, %class.Solver* %10, i32 0, i32 3
  %18 = load i8*, i8** %17, align 8
  %19 = load i32, i32* %8, align 4
  %20 = sext i32 %19 to i64
  %21 = getelementptr inbounds i8, i8* %18, i64 %20
  %22 = load i8, i8* %21, align 1
  %23 = sext i8 %22 to i32
  %24 = sitofp i32 %23 to double
  %25 = getelementptr inbounds %class.Solver, %class.Solver* %10, i32 0, i32 4
  %26 = load double*, double** %25, align 8
  %27 = load i32, i32* %8, align 4
  %28 = sext i32 %27 to i64
  %29 = getelementptr inbounds double, double* %26, i64 %28
  %30 = load double, double* %29, align 8
  %31 = fmul double %24, %30
  store double %31, double* %9, align 8
  %32 = load i32, i32* %8, align 4
  %33 = call noundef zeroext i1 @_ZN6Solver14is_upper_boundEi(%class.Solver* noundef nonnull align 8 dereferenceable(117) %10, i32 noundef %32)
  br i1 %33, label %34, label %52

34:                                               ; preds = %16
  %35 = getelementptr inbounds %class.Solver, %class.Solver* %10, i32 0, i32 3
  %36 = load i8*, i8** %35, align 8
  %37 = load i32, i32* %8, align 4
  %38 = sext i32 %37 to i64
  %39 = getelementptr inbounds i8, i8* %36, i64 %38
  %40 = load i8, i8* %39, align 1
  %41 = sext i8 %40 to i32
  %42 = icmp eq i32 %41, -1
  br i1 %42, label %43, label %47

43:                                               ; preds = %34
  %44 = load double, double* %5, align 8
  %45 = load double, double* %9, align 8
  %46 = call noundef double @_ZL3minIdET_S0_S0_(double noundef %44, double noundef %45)
  store double %46, double* %5, align 8
  br label %51

47:                                               ; preds = %34
  %48 = load double, double* %6, align 8
  %49 = load double, double* %9, align 8
  %50 = call noundef double @_ZL3maxIdET_S0_S0_(double noundef %48, double noundef %49)
  store double %50, double* %6, align 8
  br label %51

51:                                               ; preds = %47, %43
  br label %80

52:                                               ; preds = %16
  %53 = load i32, i32* %8, align 4
  %54 = call noundef zeroext i1 @_ZN6Solver14is_lower_boundEi(%class.Solver* noundef nonnull align 8 dereferenceable(117) %10, i32 noundef %53)
  br i1 %54, label %55, label %73

55:                                               ; preds = %52
  %56 = getelementptr inbounds %class.Solver, %class.Solver* %10, i32 0, i32 3
  %57 = load i8*, i8** %56, align 8
  %58 = load i32, i32* %8, align 4
  %59 = sext i32 %58 to i64
  %60 = getelementptr inbounds i8, i8* %57, i64 %59
  %61 = load i8, i8* %60, align 1
  %62 = sext i8 %61 to i32
  %63 = icmp eq i32 %62, 1
  br i1 %63, label %64, label %68

64:                                               ; preds = %55
  %65 = load double, double* %5, align 8
  %66 = load double, double* %9, align 8
  %67 = call noundef double @_ZL3minIdET_S0_S0_(double noundef %65, double noundef %66)
  store double %67, double* %5, align 8
  br label %72

68:                                               ; preds = %55
  %69 = load double, double* %6, align 8
  %70 = load double, double* %9, align 8
  %71 = call noundef double @_ZL3maxIdET_S0_S0_(double noundef %69, double noundef %70)
  store double %71, double* %6, align 8
  br label %72

72:                                               ; preds = %68, %64
  br label %79

73:                                               ; preds = %52
  %74 = load i32, i32* %4, align 4
  %75 = add nsw i32 %74, 1
  store i32 %75, i32* %4, align 4
  %76 = load double, double* %9, align 8
  %77 = load double, double* %7, align 8
  %78 = fadd double %77, %76
  store double %78, double* %7, align 8
  br label %79

79:                                               ; preds = %73, %72
  br label %80

80:                                               ; preds = %79, %51
  br label %81

81:                                               ; preds = %80
  %82 = load i32, i32* %8, align 4
  %83 = add nsw i32 %82, 1
  store i32 %83, i32* %8, align 4
  br label %11, !llvm.loop !39

84:                                               ; preds = %11
  %85 = load i32, i32* %4, align 4
  %86 = icmp sgt i32 %85, 0
  br i1 %86, label %87, label %92

87:                                               ; preds = %84
  %88 = load double, double* %7, align 8
  %89 = load i32, i32* %4, align 4
  %90 = sitofp i32 %89 to double
  %91 = fdiv double %88, %90
  store double %91, double* %3, align 8
  br label %97

92:                                               ; preds = %84
  %93 = load double, double* %5, align 8
  %94 = load double, double* %6, align 8
  %95 = fadd double %93, %94
  %96 = fdiv double %95, 2.000000e+00
  store double %96, double* %3, align 8
  br label %97

97:                                               ; preds = %92, %87
  %98 = load double, double* %3, align 8
  ret double %98
}

; Function Attrs: mustprogress noinline nounwind optnone uwtable
define internal noundef double @_ZL3minIdET_S0_S0_(double noundef %0, double noundef %1) #2 {
  %3 = alloca double, align 8
  %4 = alloca double, align 8
  store double %0, double* %3, align 8
  store double %1, double* %4, align 8
  %5 = load double, double* %3, align 8
  %6 = load double, double* %4, align 8
  %7 = fcmp olt double %5, %6
  br i1 %7, label %8, label %10

8:                                                ; preds = %2
  %9 = load double, double* %3, align 8
  br label %12

10:                                               ; preds = %2
  %11 = load double, double* %4, align 8
  br label %12

12:                                               ; preds = %10, %8
  %13 = phi double [ %9, %8 ], [ %11, %10 ]
  ret double %13
}

; Function Attrs: mustprogress noinline nounwind optnone uwtable
define internal noundef double @_ZL3maxIdET_S0_S0_(double noundef %0, double noundef %1) #2 {
  %3 = alloca double, align 8
  %4 = alloca double, align 8
  store double %0, double* %3, align 8
  store double %1, double* %4, align 8
  %5 = load double, double* %3, align 8
  %6 = load double, double* %4, align 8
  %7 = fcmp ogt double %5, %6
  br i1 %7, label %8, label %10

8:                                                ; preds = %2
  %9 = load double, double* %3, align 8
  br label %12

10:                                               ; preds = %2
  %11 = load double, double* %4, align 8
  br label %12

12:                                               ; preds = %10, %8
  %13 = phi double [ %9, %8 ], [ %11, %10 ]
  ret double %13
}

; Function Attrs: mustprogress noinline optnone uwtable
define dso_local noundef i32 @_ZN9Solver_NU18select_working_setERiS0_(%class.Solver_NU* noundef nonnull align 8 dereferenceable(128) %0, i32* noundef nonnull align 4 dereferenceable(4) %1, i32* noundef nonnull align 4 dereferenceable(4) %2) unnamed_addr #4 align 2 {
  %4 = alloca i32, align 4
  %5 = alloca %class.Solver_NU*, align 8
  %6 = alloca i32*, align 8
  %7 = alloca i32*, align 8
  %8 = alloca double, align 8
  %9 = alloca double, align 8
  %10 = alloca i32, align 4
  %11 = alloca double, align 8
  %12 = alloca double, align 8
  %13 = alloca i32, align 4
  %14 = alloca i32, align 4
  %15 = alloca double, align 8
  %16 = alloca i32, align 4
  %17 = alloca i32, align 4
  %18 = alloca i32, align 4
  %19 = alloca float*, align 8
  %20 = alloca float*, align 8
  %21 = alloca i32, align 4
  %22 = alloca double, align 8
  %23 = alloca double, align 8
  %24 = alloca double, align 8
  %25 = alloca double, align 8
  %26 = alloca double, align 8
  %27 = alloca double, align 8
  store %class.Solver_NU* %0, %class.Solver_NU** %5, align 8
  store i32* %1, i32** %6, align 8
  store i32* %2, i32** %7, align 8
  %28 = load %class.Solver_NU*, %class.Solver_NU** %5, align 8
  store double 0xFFF0000000000000, double* %8, align 8
  store double 0xFFF0000000000000, double* %9, align 8
  store i32 -1, i32* %10, align 4
  store double 0xFFF0000000000000, double* %11, align 8
  store double 0xFFF0000000000000, double* %12, align 8
  store i32 -1, i32* %13, align 4
  store i32 -1, i32* %14, align 4
  store double 0x7FF0000000000000, double* %15, align 8
  store i32 0, i32* %16, align 4
  br label %29

29:                                               ; preds = %98, %3
  %30 = load i32, i32* %16, align 4
  %31 = bitcast %class.Solver_NU* %28 to %class.Solver*
  %32 = getelementptr inbounds %class.Solver, %class.Solver* %31, i32 0, i32 1
  %33 = load i32, i32* %32, align 8
  %34 = icmp slt i32 %30, %33
  br i1 %34, label %35, label %101

35:                                               ; preds = %29
  %36 = bitcast %class.Solver_NU* %28 to %class.Solver*
  %37 = getelementptr inbounds %class.Solver, %class.Solver* %36, i32 0, i32 3
  %38 = load i8*, i8** %37, align 8
  %39 = load i32, i32* %16, align 4
  %40 = sext i32 %39 to i64
  %41 = getelementptr inbounds i8, i8* %38, i64 %40
  %42 = load i8, i8* %41, align 1
  %43 = sext i8 %42 to i32
  %44 = icmp eq i32 %43, 1
  br i1 %44, label %45, label %72

45:                                               ; preds = %35
  %46 = bitcast %class.Solver_NU* %28 to %class.Solver*
  %47 = load i32, i32* %16, align 4
  %48 = call noundef zeroext i1 @_ZN6Solver14is_upper_boundEi(%class.Solver* noundef nonnull align 8 dereferenceable(117) %46, i32 noundef %47)
  br i1 %48, label %71, label %49

49:                                               ; preds = %45
  %50 = bitcast %class.Solver_NU* %28 to %class.Solver*
  %51 = getelementptr inbounds %class.Solver, %class.Solver* %50, i32 0, i32 4
  %52 = load double*, double** %51, align 8
  %53 = load i32, i32* %16, align 4
  %54 = sext i32 %53 to i64
  %55 = getelementptr inbounds double, double* %52, i64 %54
  %56 = load double, double* %55, align 8
  %57 = fneg double %56
  %58 = load double, double* %8, align 8
  %59 = fcmp oge double %57, %58
  br i1 %59, label %60, label %70

60:                                               ; preds = %49
  %61 = bitcast %class.Solver_NU* %28 to %class.Solver*
  %62 = getelementptr inbounds %class.Solver, %class.Solver* %61, i32 0, i32 4
  %63 = load double*, double** %62, align 8
  %64 = load i32, i32* %16, align 4
  %65 = sext i32 %64 to i64
  %66 = getelementptr inbounds double, double* %63, i64 %65
  %67 = load double, double* %66, align 8
  %68 = fneg double %67
  store double %68, double* %8, align 8
  %69 = load i32, i32* %16, align 4
  store i32 %69, i32* %10, align 4
  br label %70

70:                                               ; preds = %60, %49
  br label %71

71:                                               ; preds = %70, %45
  br label %97

72:                                               ; preds = %35
  %73 = bitcast %class.Solver_NU* %28 to %class.Solver*
  %74 = load i32, i32* %16, align 4
  %75 = call noundef zeroext i1 @_ZN6Solver14is_lower_boundEi(%class.Solver* noundef nonnull align 8 dereferenceable(117) %73, i32 noundef %74)
  br i1 %75, label %96, label %76

76:                                               ; preds = %72
  %77 = bitcast %class.Solver_NU* %28 to %class.Solver*
  %78 = getelementptr inbounds %class.Solver, %class.Solver* %77, i32 0, i32 4
  %79 = load double*, double** %78, align 8
  %80 = load i32, i32* %16, align 4
  %81 = sext i32 %80 to i64
  %82 = getelementptr inbounds double, double* %79, i64 %81
  %83 = load double, double* %82, align 8
  %84 = load double, double* %11, align 8
  %85 = fcmp oge double %83, %84
  br i1 %85, label %86, label %95

86:                                               ; preds = %76
  %87 = bitcast %class.Solver_NU* %28 to %class.Solver*
  %88 = getelementptr inbounds %class.Solver, %class.Solver* %87, i32 0, i32 4
  %89 = load double*, double** %88, align 8
  %90 = load i32, i32* %16, align 4
  %91 = sext i32 %90 to i64
  %92 = getelementptr inbounds double, double* %89, i64 %91
  %93 = load double, double* %92, align 8
  store double %93, double* %11, align 8
  %94 = load i32, i32* %16, align 4
  store i32 %94, i32* %13, align 4
  br label %95

95:                                               ; preds = %86, %76
  br label %96

96:                                               ; preds = %95, %72
  br label %97

97:                                               ; preds = %96, %71
  br label %98

98:                                               ; preds = %97
  %99 = load i32, i32* %16, align 4
  %100 = add nsw i32 %99, 1
  store i32 %100, i32* %16, align 4
  br label %29, !llvm.loop !40

101:                                              ; preds = %29
  %102 = load i32, i32* %10, align 4
  store i32 %102, i32* %17, align 4
  %103 = load i32, i32* %13, align 4
  store i32 %103, i32* %18, align 4
  store float* null, float** %19, align 8
  store float* null, float** %20, align 8
  %104 = load i32, i32* %17, align 4
  %105 = icmp ne i32 %104, -1
  br i1 %105, label %106, label %119

106:                                              ; preds = %101
  %107 = bitcast %class.Solver_NU* %28 to %class.Solver*
  %108 = getelementptr inbounds %class.Solver, %class.Solver* %107, i32 0, i32 7
  %109 = load %class.QMatrix*, %class.QMatrix** %108, align 8
  %110 = load i32, i32* %17, align 4
  %111 = bitcast %class.Solver_NU* %28 to %class.Solver*
  %112 = getelementptr inbounds %class.Solver, %class.Solver* %111, i32 0, i32 1
  %113 = load i32, i32* %112, align 8
  %114 = bitcast %class.QMatrix* %109 to float* (%class.QMatrix*, i32, i32)***
  %115 = load float* (%class.QMatrix*, i32, i32)**, float* (%class.QMatrix*, i32, i32)*** %114, align 8
  %116 = getelementptr inbounds float* (%class.QMatrix*, i32, i32)*, float* (%class.QMatrix*, i32, i32)** %115, i64 0
  %117 = load float* (%class.QMatrix*, i32, i32)*, float* (%class.QMatrix*, i32, i32)** %116, align 8
  %118 = call noundef float* %117(%class.QMatrix* noundef nonnull align 8 dereferenceable(8) %109, i32 noundef %110, i32 noundef %113)
  store float* %118, float** %19, align 8
  br label %119

119:                                              ; preds = %106, %101
  %120 = load i32, i32* %18, align 4
  %121 = icmp ne i32 %120, -1
  br i1 %121, label %122, label %135

122:                                              ; preds = %119
  %123 = bitcast %class.Solver_NU* %28 to %class.Solver*
  %124 = getelementptr inbounds %class.Solver, %class.Solver* %123, i32 0, i32 7
  %125 = load %class.QMatrix*, %class.QMatrix** %124, align 8
  %126 = load i32, i32* %18, align 4
  %127 = bitcast %class.Solver_NU* %28 to %class.Solver*
  %128 = getelementptr inbounds %class.Solver, %class.Solver* %127, i32 0, i32 1
  %129 = load i32, i32* %128, align 8
  %130 = bitcast %class.QMatrix* %125 to float* (%class.QMatrix*, i32, i32)***
  %131 = load float* (%class.QMatrix*, i32, i32)**, float* (%class.QMatrix*, i32, i32)*** %130, align 8
  %132 = getelementptr inbounds float* (%class.QMatrix*, i32, i32)*, float* (%class.QMatrix*, i32, i32)** %131, i64 0
  %133 = load float* (%class.QMatrix*, i32, i32)*, float* (%class.QMatrix*, i32, i32)** %132, align 8
  %134 = call noundef float* %133(%class.QMatrix* noundef nonnull align 8 dereferenceable(8) %125, i32 noundef %126, i32 noundef %129)
  store float* %134, float** %20, align 8
  br label %135

135:                                              ; preds = %122, %119
  store i32 0, i32* %21, align 4
  br label %136

136:                                              ; preds = %321, %135
  %137 = load i32, i32* %21, align 4
  %138 = bitcast %class.Solver_NU* %28 to %class.Solver*
  %139 = getelementptr inbounds %class.Solver, %class.Solver* %138, i32 0, i32 1
  %140 = load i32, i32* %139, align 8
  %141 = icmp slt i32 %137, %140
  br i1 %141, label %142, label %324

142:                                              ; preds = %136
  %143 = bitcast %class.Solver_NU* %28 to %class.Solver*
  %144 = getelementptr inbounds %class.Solver, %class.Solver* %143, i32 0, i32 3
  %145 = load i8*, i8** %144, align 8
  %146 = load i32, i32* %21, align 4
  %147 = sext i32 %146 to i64
  %148 = getelementptr inbounds i8, i8* %145, i64 %147
  %149 = load i8, i8* %148, align 1
  %150 = sext i8 %149 to i32
  %151 = icmp eq i32 %150, 1
  br i1 %151, label %152, label %235

152:                                              ; preds = %142
  %153 = bitcast %class.Solver_NU* %28 to %class.Solver*
  %154 = load i32, i32* %21, align 4
  %155 = call noundef zeroext i1 @_ZN6Solver14is_lower_boundEi(%class.Solver* noundef nonnull align 8 dereferenceable(117) %153, i32 noundef %154)
  br i1 %155, label %234, label %156

156:                                              ; preds = %152
  %157 = load double, double* %8, align 8
  %158 = bitcast %class.Solver_NU* %28 to %class.Solver*
  %159 = getelementptr inbounds %class.Solver, %class.Solver* %158, i32 0, i32 4
  %160 = load double*, double** %159, align 8
  %161 = load i32, i32* %21, align 4
  %162 = sext i32 %161 to i64
  %163 = getelementptr inbounds double, double* %160, i64 %162
  %164 = load double, double* %163, align 8
  %165 = fadd double %157, %164
  store double %165, double* %22, align 8
  %166 = bitcast %class.Solver_NU* %28 to %class.Solver*
  %167 = getelementptr inbounds %class.Solver, %class.Solver* %166, i32 0, i32 4
  %168 = load double*, double** %167, align 8
  %169 = load i32, i32* %21, align 4
  %170 = sext i32 %169 to i64
  %171 = getelementptr inbounds double, double* %168, i64 %170
  %172 = load double, double* %171, align 8
  %173 = load double, double* %9, align 8
  %174 = fcmp oge double %172, %173
  br i1 %174, label %175, label %183

175:                                              ; preds = %156
  %176 = bitcast %class.Solver_NU* %28 to %class.Solver*
  %177 = getelementptr inbounds %class.Solver, %class.Solver* %176, i32 0, i32 4
  %178 = load double*, double** %177, align 8
  %179 = load i32, i32* %21, align 4
  %180 = sext i32 %179 to i64
  %181 = getelementptr inbounds double, double* %178, i64 %180
  %182 = load double, double* %181, align 8
  store double %182, double* %9, align 8
  br label %183

183:                                              ; preds = %175, %156
  %184 = load double, double* %22, align 8
  %185 = fcmp ogt double %184, 0.000000e+00
  br i1 %185, label %186, label %233

186:                                              ; preds = %183
  %187 = bitcast %class.Solver_NU* %28 to %class.Solver*
  %188 = getelementptr inbounds %class.Solver, %class.Solver* %187, i32 0, i32 8
  %189 = load double*, double** %188, align 8
  %190 = load i32, i32* %17, align 4
  %191 = sext i32 %190 to i64
  %192 = getelementptr inbounds double, double* %189, i64 %191
  %193 = load double, double* %192, align 8
  %194 = bitcast %class.Solver_NU* %28 to %class.Solver*
  %195 = getelementptr inbounds %class.Solver, %class.Solver* %194, i32 0, i32 8
  %196 = load double*, double** %195, align 8
  %197 = load i32, i32* %21, align 4
  %198 = sext i32 %197 to i64
  %199 = getelementptr inbounds double, double* %196, i64 %198
  %200 = load double, double* %199, align 8
  %201 = fadd double %193, %200
  %202 = load float*, float** %19, align 8
  %203 = load i32, i32* %21, align 4
  %204 = sext i32 %203 to i64
  %205 = getelementptr inbounds float, float* %202, i64 %204
  %206 = load float, float* %205, align 4
  %207 = fmul float 2.000000e+00, %206
  %208 = fpext float %207 to double
  %209 = fsub double %201, %208
  store double %209, double* %24, align 8
  %210 = load double, double* %24, align 8
  %211 = fcmp ogt double %210, 0.000000e+00
  br i1 %211, label %212, label %219

212:                                              ; preds = %186
  %213 = load double, double* %22, align 8
  %214 = load double, double* %22, align 8
  %215 = fmul double %213, %214
  %216 = fneg double %215
  %217 = load double, double* %24, align 8
  %218 = fdiv double %216, %217
  store double %218, double* %23, align 8
  br label %225

219:                                              ; preds = %186
  %220 = load double, double* %22, align 8
  %221 = load double, double* %22, align 8
  %222 = fmul double %220, %221
  %223 = fneg double %222
  %224 = fdiv double %223, 0x3D719799812DEA11
  store double %224, double* %23, align 8
  br label %225

225:                                              ; preds = %219, %212
  %226 = load double, double* %23, align 8
  %227 = load double, double* %15, align 8
  %228 = fcmp ole double %226, %227
  br i1 %228, label %229, label %232

229:                                              ; preds = %225
  %230 = load i32, i32* %21, align 4
  store i32 %230, i32* %14, align 4
  %231 = load double, double* %23, align 8
  store double %231, double* %15, align 8
  br label %232

232:                                              ; preds = %229, %225
  br label %233

233:                                              ; preds = %232, %183
  br label %234

234:                                              ; preds = %233, %152
  br label %320

235:                                              ; preds = %142
  %236 = bitcast %class.Solver_NU* %28 to %class.Solver*
  %237 = load i32, i32* %21, align 4
  %238 = call noundef zeroext i1 @_ZN6Solver14is_upper_boundEi(%class.Solver* noundef nonnull align 8 dereferenceable(117) %236, i32 noundef %237)
  br i1 %238, label %319, label %239

239:                                              ; preds = %235
  %240 = load double, double* %11, align 8
  %241 = bitcast %class.Solver_NU* %28 to %class.Solver*
  %242 = getelementptr inbounds %class.Solver, %class.Solver* %241, i32 0, i32 4
  %243 = load double*, double** %242, align 8
  %244 = load i32, i32* %21, align 4
  %245 = sext i32 %244 to i64
  %246 = getelementptr inbounds double, double* %243, i64 %245
  %247 = load double, double* %246, align 8
  %248 = fsub double %240, %247
  store double %248, double* %25, align 8
  %249 = bitcast %class.Solver_NU* %28 to %class.Solver*
  %250 = getelementptr inbounds %class.Solver, %class.Solver* %249, i32 0, i32 4
  %251 = load double*, double** %250, align 8
  %252 = load i32, i32* %21, align 4
  %253 = sext i32 %252 to i64
  %254 = getelementptr inbounds double, double* %251, i64 %253
  %255 = load double, double* %254, align 8
  %256 = fneg double %255
  %257 = load double, double* %12, align 8
  %258 = fcmp oge double %256, %257
  br i1 %258, label %259, label %268

259:                                              ; preds = %239
  %260 = bitcast %class.Solver_NU* %28 to %class.Solver*
  %261 = getelementptr inbounds %class.Solver, %class.Solver* %260, i32 0, i32 4
  %262 = load double*, double** %261, align 8
  %263 = load i32, i32* %21, align 4
  %264 = sext i32 %263 to i64
  %265 = getelementptr inbounds double, double* %262, i64 %264
  %266 = load double, double* %265, align 8
  %267 = fneg double %266
  store double %267, double* %12, align 8
  br label %268

268:                                              ; preds = %259, %239
  %269 = load double, double* %25, align 8
  %270 = fcmp ogt double %269, 0.000000e+00
  br i1 %270, label %271, label %318

271:                                              ; preds = %268
  %272 = bitcast %class.Solver_NU* %28 to %class.Solver*
  %273 = getelementptr inbounds %class.Solver, %class.Solver* %272, i32 0, i32 8
  %274 = load double*, double** %273, align 8
  %275 = load i32, i32* %18, align 4
  %276 = sext i32 %275 to i64
  %277 = getelementptr inbounds double, double* %274, i64 %276
  %278 = load double, double* %277, align 8
  %279 = bitcast %class.Solver_NU* %28 to %class.Solver*
  %280 = getelementptr inbounds %class.Solver, %class.Solver* %279, i32 0, i32 8
  %281 = load double*, double** %280, align 8
  %282 = load i32, i32* %21, align 4
  %283 = sext i32 %282 to i64
  %284 = getelementptr inbounds double, double* %281, i64 %283
  %285 = load double, double* %284, align 8
  %286 = fadd double %278, %285
  %287 = load float*, float** %20, align 8
  %288 = load i32, i32* %21, align 4
  %289 = sext i32 %288 to i64
  %290 = getelementptr inbounds float, float* %287, i64 %289
  %291 = load float, float* %290, align 4
  %292 = fmul float 2.000000e+00, %291
  %293 = fpext float %292 to double
  %294 = fsub double %286, %293
  store double %294, double* %27, align 8
  %295 = load double, double* %27, align 8
  %296 = fcmp ogt double %295, 0.000000e+00
  br i1 %296, label %297, label %304

297:                                              ; preds = %271
  %298 = load double, double* %25, align 8
  %299 = load double, double* %25, align 8
  %300 = fmul double %298, %299
  %301 = fneg double %300
  %302 = load double, double* %27, align 8
  %303 = fdiv double %301, %302
  store double %303, double* %26, align 8
  br label %310

304:                                              ; preds = %271
  %305 = load double, double* %25, align 8
  %306 = load double, double* %25, align 8
  %307 = fmul double %305, %306
  %308 = fneg double %307
  %309 = fdiv double %308, 0x3D719799812DEA11
  store double %309, double* %26, align 8
  br label %310

310:                                              ; preds = %304, %297
  %311 = load double, double* %26, align 8
  %312 = load double, double* %15, align 8
  %313 = fcmp ole double %311, %312
  br i1 %313, label %314, label %317

314:                                              ; preds = %310
  %315 = load i32, i32* %21, align 4
  store i32 %315, i32* %14, align 4
  %316 = load double, double* %26, align 8
  store double %316, double* %15, align 8
  br label %317

317:                                              ; preds = %314, %310
  br label %318

318:                                              ; preds = %317, %268
  br label %319

319:                                              ; preds = %318, %235
  br label %320

320:                                              ; preds = %319, %234
  br label %321

321:                                              ; preds = %320
  %322 = load i32, i32* %21, align 4
  %323 = add nsw i32 %322, 1
  store i32 %323, i32* %21, align 4
  br label %136, !llvm.loop !41

324:                                              ; preds = %136
  %325 = load double, double* %8, align 8
  %326 = load double, double* %9, align 8
  %327 = fadd double %325, %326
  %328 = load double, double* %11, align 8
  %329 = load double, double* %12, align 8
  %330 = fadd double %328, %329
  %331 = call noundef double @_ZL3maxIdET_S0_S0_(double noundef %327, double noundef %330)
  %332 = bitcast %class.Solver_NU* %28 to %class.Solver*
  %333 = getelementptr inbounds %class.Solver, %class.Solver* %332, i32 0, i32 9
  %334 = load double, double* %333, align 8
  %335 = fcmp olt double %331, %334
  br i1 %335, label %339, label %336

336:                                              ; preds = %324
  %337 = load i32, i32* %14, align 4
  %338 = icmp eq i32 %337, -1
  br i1 %338, label %339, label %340

339:                                              ; preds = %336, %324
  store i32 1, i32* %4, align 4
  br label %359

340:                                              ; preds = %336
  %341 = bitcast %class.Solver_NU* %28 to %class.Solver*
  %342 = getelementptr inbounds %class.Solver, %class.Solver* %341, i32 0, i32 3
  %343 = load i8*, i8** %342, align 8
  %344 = load i32, i32* %14, align 4
  %345 = sext i32 %344 to i64
  %346 = getelementptr inbounds i8, i8* %343, i64 %345
  %347 = load i8, i8* %346, align 1
  %348 = sext i8 %347 to i32
  %349 = icmp eq i32 %348, 1
  br i1 %349, label %350, label %353

350:                                              ; preds = %340
  %351 = load i32, i32* %10, align 4
  %352 = load i32*, i32** %6, align 8
  store i32 %351, i32* %352, align 4
  br label %356

353:                                              ; preds = %340
  %354 = load i32, i32* %13, align 4
  %355 = load i32*, i32** %6, align 8
  store i32 %354, i32* %355, align 4
  br label %356

356:                                              ; preds = %353, %350
  %357 = load i32, i32* %14, align 4
  %358 = load i32*, i32** %7, align 8
  store i32 %357, i32* %358, align 4
  store i32 0, i32* %4, align 4
  br label %359

359:                                              ; preds = %356, %339
  %360 = load i32, i32* %4, align 4
  ret i32 %360
}

; Function Attrs: mustprogress noinline optnone uwtable
define dso_local noundef zeroext i1 @_ZN9Solver_NU9be_shrunkEidddd(%class.Solver_NU* noundef nonnull align 8 dereferenceable(128) %0, i32 noundef %1, double noundef %2, double noundef %3, double noundef %4, double noundef %5) #4 align 2 {
  %7 = alloca i1, align 1
  %8 = alloca %class.Solver_NU*, align 8
  %9 = alloca i32, align 4
  %10 = alloca double, align 8
  %11 = alloca double, align 8
  %12 = alloca double, align 8
  %13 = alloca double, align 8
  store %class.Solver_NU* %0, %class.Solver_NU** %8, align 8
  store i32 %1, i32* %9, align 4
  store double %2, double* %10, align 8
  store double %3, double* %11, align 8
  store double %4, double* %12, align 8
  store double %5, double* %13, align 8
  %14 = load %class.Solver_NU*, %class.Solver_NU** %8, align 8
  %15 = bitcast %class.Solver_NU* %14 to %class.Solver*
  %16 = load i32, i32* %9, align 4
